cdefaultOrderedDict
DefaultOrderedDict
p0
((lp1
(lp2
S'74b2c0992574a78da529452add9aa56fd7da36b2'
p3
ag0
((lp4
(lp5
S'voldemort.scheduled.DataCleanupJobTest.testCleanupFrequency[0]'
p6
a(S'pass'
p7
S'pass'
p8
S'pass'
p9
S'pass'
p10
tp11
aa(lp12
S'voldemort.scheduled.DataCleanupJobTest.testCleanupCleansUp[0]'
p13
a(S'pass'
p14
S'pass'
p15
S'pass'
p16
S'pass'
p17
tp18
aa(lp19
S'voldemort.scheduled.DataCleanupJobTest.testCleanupFrequency[1]'
p20
a(S'pass'
p21
S'pass'
p22
S'pass'
p23
S'pass'
p24
tp25
aa(lp26
S'voldemort.scheduled.DataCleanupJobTest.testCleanupCleansUp[1]'
p27
a(S'pass'
p28
S'pass'
p29
S'pass'
p30
S'pass'
p31
tp32
aa(lp33
S'voldemort.store.bdb.BdbPartitionListIteratorTest.testEmptyPartitionList'
p34
a(S'pass'
p35
S'pass'
p36
S'pass'
p37
S'pass'
p38
tp39
aa(lp40
S'voldemort.store.bdb.BdbPartitionListIteratorTest.testEmptyPartition'
p41
a(S'pass'
p42
S'pass'
p43
S'pass'
p44
S'pass'
p45
tp46
aa(lp47
S'voldemort.store.bdb.BdbPartitionListIteratorTest.testSingletonPartitionList'
p48
a(S'pass'
p49
S'pass'
p50
S'pass'
p51
S'pass'
p52
tp53
aa(lp54
S'voldemort.store.bdb.BdbPartitionListIteratorTest.testPartitionListWithEmptyPartitions'
p55
a(S'pass'
p56
S'pass'
p57
S'pass'
p58
S'pass'
p59
tp60
aa(lp61
S'voldemort.coordinator.DynamicTimeoutStoreClientTest.test'
p62
a(S'pass'
p63
S'pass'
p64
S'pass'
p65
S'pass'
p66
tp67
aa(lp68
S'voldemort.store.readonly.ChunkedFileSetTest.testCollision'
p69
a(S'pass'
p70
S'pass'
p71
S'pass'
p72
S'pass'
p73
tp74
aa(lp75
S'voldemort.server.socket.ClientRequestExecutorPoolTest.testInFlightServerBounce[0]'
p76
a(S'pass'
p77
S'pass'
p78
S'pass'
p79
S'pass'
p80
tp81
aa(lp82
S'voldemort.server.socket.ClientRequestExecutorPoolTest.testAtRestServerBounce[0]'
p83
a(S'pass'
p84
S'pass'
p85
S'pass'
p86
S'pass'
p87
tp88
aa(lp89
S'voldemort.server.socket.ClientRequestExecutorPoolTest.testTwoCheckoutsGetTheSameSocket[0]'
p90
a(S'pass'
p91
S'pass'
p92
S'pass'
p93
S'pass'
p94
tp95
aa(lp96
S'voldemort.server.socket.ClientRequestExecutorPoolTest.testClosingDeactivates[0]'
p97
a(S'pass'
p98
S'pass'
p99
S'pass'
p100
S'pass'
p101
tp102
aa(lp103
S'voldemort.server.socket.ClientRequestExecutorPoolTest.testCloseWithInFlightSockets[0]'
p104
a(S'pass'
p105
S'pass'
p106
S'pass'
p107
S'pass'
p108
tp109
aa(lp110
S'voldemort.server.socket.ClientRequestExecutorPoolTest.testSocketClosedWhenCheckedInAfterPoolKeyClosed[0]'
p111
a(S'pass'
p112
S'pass'
p113
S'pass'
p114
S'pass'
p115
tp116
aa(lp117
S'voldemort.server.socket.ClientRequestExecutorPoolTest.testNonExistentHost[0]'
p118
a(S'pass'
p119
S'pass'
p120
S'pass'
p121
S'pass'
p122
tp123
aa(lp124
S'voldemort.server.socket.ClientRequestExecutorPoolTest.testUnresponsiveServerThrows[0]'
p125
a(S'pass'
p126
S'pass'
p127
S'pass'
p128
S'pass'
p129
tp130
aa(lp131
S'voldemort.server.socket.ClientRequestExecutorPoolTest.testMachinUpProcessDownThrows[0]'
p132
a(S'pass'
p133
S'pass'
p134
S'pass'
p135
S'pass'
p136
tp137
aa(lp138
S'voldemort.server.socket.ClientRequestExecutorPoolTest.testConnectionTimeoutThrows[0]'
p139
a(S'pass'
p140
S'pass'
p141
S'pass'
p142
S'pass'
p143
tp144
aa(lp145
S'voldemort.server.socket.ClientRequestExecutorPoolTest.testCloseWithOutstandingQueue[0]'
p146
a(S'pass'
p147
S'pass'
p148
S'pass'
p149
S'pass'
p150
tp151
aa(lp152
S'voldemort.server.socket.ClientRequestExecutorPoolTest.testRememberedExceptions[0]'
p153
a(S'pass'
p154
S'pass'
p155
S'pass'
p156
S'pass'
p157
tp158
aa(lp159
S'voldemort.server.socket.ClientRequestExecutorPoolTest.testRememberedExceptionsBeyondTime[0]'
p160
a(S'pass'
p161
S'pass'
p162
S'pass'
p163
S'pass'
p164
tp165
aa(lp166
S'voldemort.server.socket.ClientRequestExecutorPoolTest.testInFlightServerBounce[1]'
p167
a(S'pass'
p168
S'pass'
p169
S'pass'
p170
S'pass'
p171
tp172
aa(lp173
S'voldemort.server.socket.ClientRequestExecutorPoolTest.testAtRestServerBounce[1]'
p174
a(S'pass'
p175
S'pass'
p176
S'pass'
p177
S'pass'
p178
tp179
aa(lp180
S'voldemort.server.socket.ClientRequestExecutorPoolTest.testTwoCheckoutsGetTheSameSocket[1]'
p181
a(S'pass'
p182
S'pass'
p183
S'pass'
p184
S'pass'
p185
tp186
aa(lp187
S'voldemort.server.socket.ClientRequestExecutorPoolTest.testClosingDeactivates[1]'
p188
a(S'pass'
p189
S'pass'
p190
S'pass'
p191
S'pass'
p192
tp193
aa(lp194
S'voldemort.server.socket.ClientRequestExecutorPoolTest.testCloseWithInFlightSockets[1]'
p195
a(S'pass'
p196
S'pass'
p197
S'pass'
p198
S'pass'
p199
tp200
aa(lp201
S'voldemort.server.socket.ClientRequestExecutorPoolTest.testSocketClosedWhenCheckedInAfterPoolKeyClosed[1]'
p202
a(S'pass'
p203
S'pass'
p204
S'pass'
p205
S'pass'
p206
tp207
aa(lp208
S'voldemort.server.socket.ClientRequestExecutorPoolTest.testNonExistentHost[1]'
p209
a(S'pass'
p210
S'pass'
p211
S'pass'
p212
S'pass'
p213
tp214
aa(lp215
S'voldemort.server.socket.ClientRequestExecutorPoolTest.testUnresponsiveServerThrows[1]'
p216
a(S'pass'
p217
S'pass'
p218
S'pass'
p219
S'pass'
p220
tp221
aa(lp222
S'voldemort.server.socket.ClientRequestExecutorPoolTest.testMachinUpProcessDownThrows[1]'
p223
a(S'pass'
p224
S'pass'
p225
S'pass'
p226
S'pass'
p227
tp228
aa(lp229
S'voldemort.server.socket.ClientRequestExecutorPoolTest.testConnectionTimeoutThrows[1]'
p230
a(S'pass'
p231
S'pass'
p232
S'pass'
p233
S'pass'
p234
tp235
aa(lp236
S'voldemort.server.socket.ClientRequestExecutorPoolTest.testCloseWithOutstandingQueue[1]'
p237
a(S'pass'
p238
S'pass'
p239
S'pass'
p240
S'pass'
p241
tp242
aa(lp243
S'voldemort.server.socket.ClientRequestExecutorPoolTest.testRememberedExceptions[1]'
p244
a(S'pass'
p245
S'pass'
p246
S'pass'
p247
S'pass'
p248
tp249
aa(lp250
S'voldemort.server.socket.ClientRequestExecutorPoolTest.testRememberedExceptionsBeyondTime[1]'
p251
a(S'pass'
p252
S'pass'
p253
S'pass'
p254
S'pass'
p255
tp256
aa(lp257
S'voldemort.store.http.HttpStoreTest.testBadUrl'
p258
a(S'pass'
p259
S'pass'
p260
S'pass'
p261
S'pass'
p262
tp263
aa(lp264
S'voldemort.store.http.HttpStoreTest.testBadPort'
p265
a(S'pass'
p266
S'pass'
p267
S'pass'
p268
S'pass'
p269
tp270
aa(lp271
S'voldemort.store.http.HttpStoreTest.testEmptyByteArray'
p272
a(S'pass'
p273
S'pass'
p274
S'pass'
p275
S'pass'
p276
tp277
aa(lp278
S'voldemort.store.http.HttpStoreTest.testNullKeys'
p279
a(S'pass'
p280
S'pass'
p281
S'pass'
p282
S'pass'
p283
tp284
aa(lp285
S'voldemort.store.http.HttpStoreTest.testPutNullValue'
p286
a(S'pass'
p287
S'pass'
p288
S'pass'
p289
S'pass'
p290
tp291
aa(lp292
S'voldemort.store.http.HttpStoreTest.testGetAndDeleteNonExistentKey'
p293
a(S'pass'
p294
S'pass'
p295
S'pass'
p296
S'pass'
p297
tp298
aa(lp299
S'voldemort.store.http.HttpStoreTest.testFetchedEqualsPut'
p300
a(S'pass'
p301
S'pass'
p302
S'pass'
p303
S'pass'
p304
tp305
aa(lp306
S'voldemort.store.http.HttpStoreTest.testVersionedPut'
p307
a(S'pass'
p308
S'pass'
p309
S'pass'
p310
S'pass'
p311
tp312
aa(lp313
S'voldemort.store.http.HttpStoreTest.testDelete'
p314
a(S'pass'
p315
S'pass'
p316
S'pass'
p317
S'pass'
p318
tp319
aa(lp320
S'voldemort.store.http.HttpStoreTest.testGetVersions'
p321
a(S'pass'
p322
S'pass'
p323
S'pass'
p324
S'pass'
p325
tp326
aa(lp327
S'voldemort.store.http.HttpStoreTest.testGetAll'
p328
a(S'pass'
p329
S'pass'
p330
S'pass'
p331
S'pass'
p332
tp333
aa(lp334
S'voldemort.store.http.HttpStoreTest.testGetAllWithAbsentKeys'
p335
a(S'pass'
p336
S'pass'
p337
S'pass'
p338
S'pass'
p339
tp340
aa(lp341
S'voldemort.store.http.HttpStoreTest.testCloseIsIdempotent'
p342
a(S'pass'
p343
S'pass'
p344
S'pass'
p345
S'pass'
p346
tp347
aa(lp348
S'voldemort.utils.ConsistencyFixWorkerTest.orphanPutThree'
p349
a(S'pass'
p350
S'pass'
p351
S'pass'
p352
S'pass'
p353
tp354
aa(lp355
S'voldemort.utils.ConsistencyFixWorkerTest.orphanPutFour'
p356
a(S'pass'
p357
S'pass'
p358
S'pass'
p359
S'pass'
p360
tp361
aa(lp362
S'voldemort.utils.ConsistencyFixWorkerTest.orphanPutZero'
p363
a(S'pass'
p364
S'pass'
p365
S'pass'
p366
S'pass'
p367
tp368
aa(lp369
S'voldemort.utils.ConsistencyFixWorkerTest.repairPutOne'
p370
a(S'pass'
p371
S'pass'
p372
S'pass'
p373
S'pass'
p374
tp375
aa(lp376
S'voldemort.utils.ConsistencyFixWorkerTest.repairPutTwo'
p377
a(S'pass'
p378
S'pass'
p379
S'pass'
p380
S'pass'
p381
tp382
aa(lp383
S'voldemort.utils.ConsistencyFixWorkerTest.repairPutThree'
p384
a(S'pass'
p385
S'pass'
p386
S'pass'
p387
S'pass'
p388
tp389
aa(lp390
S'voldemort.utils.ConsistencyFixWorkerTest.repairPutFour'
p391
a(S'pass'
p392
S'pass'
p393
S'pass'
p394
S'pass'
p395
tp396
aa(lp397
S'voldemort.utils.ConsistencyFixWorkerTest.repairPutZero'
p398
a(S'pass'
p399
S'pass'
p400
S'pass'
p401
S'pass'
p402
tp403
aa(lp404
S'voldemort.utils.ConsistencyFixWorkerTest.orphanPutOne'
p405
a(S'pass'
p406
S'pass'
p407
S'pass'
p408
S'pass'
p409
tp410
aa(lp411
S'voldemort.utils.ConsistencyFixWorkerTest.orphanPutTwo'
p412
a(S'pass'
p413
S'pass'
p414
S'pass'
p415
S'pass'
p416
tp417
aa(lp418
S'voldemort.store.slop.strategy.HandoffToAnyStrategyTest.testRouteHint'
p419
a(S'pass'
p420
S'pass'
p421
S'pass'
p422
S'pass'
p423
tp424
aa(lp425
S'voldemort.store.slop.strategy.HandoffToAnyStrategyTest.testRouteHintWithZones'
p426
a(S'pass'
p427
S'pass'
p428
S'pass'
p429
S'pass'
p430
tp431
aa(lp432
S'voldemort.utils.MoveMapTest.testAdd'
p433
a(S'pass'
p434
S'pass'
p435
S'pass'
p436
S'pass'
p437
tp438
aa(lp439
S'voldemort.utils.MoveMapTest.testGroupBy'
p440
a(S'pass'
p441
S'pass'
p442
S'pass'
p443
S'pass'
p444
tp445
aa(lp446
S'voldemort.utils.MoveMapTest.testBasics'
p447
a(S'pass'
p448
S'pass'
p449
S'pass'
p450
S'pass'
p451
tp452
aa(lp453
S'voldemort.store.invalidmetadata.InvalidMetadataCheckingStoreTest.testAddingPartition'
p454
a(S'pass'
p455
S'pass'
p456
S'pass'
p457
S'pass'
p458
tp459
aa(lp460
S'voldemort.store.invalidmetadata.InvalidMetadataCheckingStoreTest.testRemovingPartition'
p461
a(S'pass'
p462
S'pass'
p463
S'pass'
p464
S'pass'
p465
tp466
aa(lp467
S'voldemort.store.invalidmetadata.InvalidMetadataCheckingStoreTest.testValidMetaData'
p468
a(S'pass'
p469
S'pass'
p470
S'pass'
p471
S'pass'
p472
tp473
aa(lp474
S'voldemort.client.DefaultStoreClientTest.testPutIfNotObsolete'
p475
a(S'pass'
p476
S'pass'
p477
S'pass'
p478
S'pass'
p479
tp480
aa(lp481
S'voldemort.client.DefaultStoreClientTest.testDelete'
p482
a(S'pass'
p483
S'pass'
p484
S'pass'
p485
S'pass'
p486
tp487
aa(lp488
S'voldemort.client.DefaultStoreClientTest.testDeleteVersion'
p489
a(S'pass'
p490
S'pass'
p491
S'pass'
p492
S'pass'
p493
tp494
aa(lp495
S'voldemort.client.DefaultStoreClientTest.testGetAll'
p496
a(S'pass'
p497
S'pass'
p498
S'pass'
p499
S'pass'
p500
tp501
aa(lp502
S'voldemort.client.DefaultStoreClientTest.testGetWithDefault'
p503
a(S'pass'
p504
S'pass'
p505
S'pass'
p506
S'pass'
p507
tp508
aa(lp509
S'voldemort.client.DefaultStoreClientTest.testGetUnversioned'
p510
a(S'pass'
p511
S'pass'
p512
S'pass'
p513
S'pass'
p514
tp515
aa(lp516
S'voldemort.client.DefaultStoreClientTest.testGetUnversionedWithDefault'
p517
a(S'pass'
p518
S'pass'
p519
S'pass'
p520
S'pass'
p521
tp522
aa(lp523
S'voldemort.client.DefaultStoreClientTest.testPutVersioned'
p524
a(S'pass'
p525
S'pass'
p526
S'pass'
p527
S'pass'
p528
tp529
aa(lp530
S'voldemort.client.DefaultStoreClientTest.testPutUnversioned'
p531
a(S'pass'
p532
S'pass'
p533
S'pass'
p534
S'pass'
p535
tp536
aa(lp537
S'voldemort.client.DefaultStoreClientTest.testGet'
p538
a(S'pass'
p539
S'pass'
p540
S'pass'
p541
S'pass'
p542
tp543
aa(lp544
S'voldemort.store.bdb.BdbStorageEngineTest.testGetAndLock[0]'
p545
a(S'pass'
p546
S'pass'
p547
S'pass'
p548
S'pass'
p549
tp550
aa(lp551
S'voldemort.store.bdb.BdbStorageEngineTest.testPutAndLock[0]'
p552
a(S'pass'
p553
S'pass'
p554
S'pass'
p555
S'pass'
p556
tp557
aa(lp558
S'voldemort.store.bdb.BdbStorageEngineTest.testSimultaneousIterationAndModification[0]'
p559
a(S'pass'
p560
S'pass'
p561
S'pass'
p562
S'pass'
p563
tp564
aa(lp565
S'voldemort.store.bdb.BdbStorageEngineTest.testNativeBackup[0]'
p566
a(S'pass'
p567
S'pass'
p568
S'pass'
p569
S'pass'
p570
tp571
aa(lp572
S'voldemort.store.bdb.BdbStorageEngineTest.testPersistence[0]'
p573
a(S'pass'
p574
S'pass'
p575
S'pass'
p576
S'pass'
p577
tp578
aa(lp579
S'voldemort.store.bdb.BdbStorageEngineTest.testEquals[0]'
p580
a(S'pass'
p581
S'pass'
p582
S'pass'
p583
S'pass'
p584
tp585
aa(lp586
S'voldemort.store.bdb.BdbStorageEngineTest.testNullConstructorParameters[0]'
p587
a(S'pass'
p588
S'pass'
p589
S'pass'
p590
S'pass'
p591
tp592
aa(lp593
S'voldemort.store.bdb.BdbStorageEngineTest.testConcurrentReadAndPut[0]'
p594
a(S'pass'
p595
S'pass'
p596
S'pass'
p597
S'pass'
p598
tp599
aa(lp600
S'voldemort.store.bdb.BdbStorageEngineTest.testGetNoEntries[0]'
p601
a(S'pass'
p602
S'pass'
p603
S'pass'
p604
S'pass'
p605
tp606
aa(lp607
S'voldemort.store.bdb.BdbStorageEngineTest.testGetNoKeys[0]'
p608
a(S'pass'
p609
S'pass'
p610
S'pass'
p611
S'pass'
p612
tp613
aa(lp614
S'voldemort.store.bdb.BdbStorageEngineTest.testKeyIterationWithSerialization[0]'
p615
a(S'pass'
p616
S'pass'
p617
S'pass'
p618
S'pass'
p619
tp620
aa(lp621
S'voldemort.store.bdb.BdbStorageEngineTest.testIterationWithSerialization[0]'
p622
a(S'pass'
p623
S'pass'
p624
S'pass'
p625
S'pass'
p626
tp627
aa(lp628
S'voldemort.store.bdb.BdbStorageEngineTest.testPruneOnWrite[0]'
p629
a(S'pass'
p630
S'pass'
p631
S'pass'
p632
S'pass'
p633
tp634
aa(lp635
S'voldemort.store.bdb.BdbStorageEngineTest.testTruncate[0]'
p636
a(S'pass'
p637
S'pass'
p638
S'pass'
p639
S'pass'
p640
tp641
aa(lp642
S'voldemort.store.bdb.BdbStorageEngineTest.testMultiVersionPuts[0]'
p643
a(S'pass'
p644
S'pass'
p645
S'pass'
p646
S'pass'
p647
tp648
aa(lp649
S'voldemort.store.bdb.BdbStorageEngineTest.testEntryIteration[0]'
p650
a(S'pass'
p651
S'pass'
p652
S'pass'
p653
S'pass'
p654
tp655
aa(lp656
S'voldemort.store.bdb.BdbStorageEngineTest.testEmptyByteArray[0]'
p657
a(S'pass'
p658
S'pass'
p659
S'pass'
p660
S'pass'
p661
tp662
aa(lp663
S'voldemort.store.bdb.BdbStorageEngineTest.testNullKeys[0]'
p664
a(S'pass'
p665
S'pass'
p666
S'pass'
p667
S'pass'
p668
tp669
aa(lp670
S'voldemort.store.bdb.BdbStorageEngineTest.testPutNullValue[0]'
p671
a(S'pass'
p672
S'pass'
p673
S'pass'
p674
S'pass'
p675
tp676
aa(lp677
S'voldemort.store.bdb.BdbStorageEngineTest.testGetAndDeleteNonExistentKey[0]'
p678
a(S'pass'
p679
S'pass'
p680
S'pass'
p681
S'pass'
p682
tp683
aa(lp684
S'voldemort.store.bdb.BdbStorageEngineTest.testFetchedEqualsPut[0]'
p685
a(S'pass'
p686
S'pass'
p687
S'pass'
p688
S'pass'
p689
tp690
aa(lp691
S'voldemort.store.bdb.BdbStorageEngineTest.testVersionedPut[0]'
p692
a(S'pass'
p693
S'pass'
p694
S'pass'
p695
S'pass'
p696
tp697
aa(lp698
S'voldemort.store.bdb.BdbStorageEngineTest.testDelete[0]'
p699
a(S'pass'
p700
S'pass'
p701
S'pass'
p702
S'pass'
p703
tp704
aa(lp705
S'voldemort.store.bdb.BdbStorageEngineTest.testGetVersions[0]'
p706
a(S'pass'
p707
S'pass'
p708
S'pass'
p709
S'pass'
p710
tp711
aa(lp712
S'voldemort.store.bdb.BdbStorageEngineTest.testGetAll[0]'
p713
a(S'pass'
p714
S'pass'
p715
S'pass'
p716
S'pass'
p717
tp718
aa(lp719
S'voldemort.store.bdb.BdbStorageEngineTest.testGetAllWithAbsentKeys[0]'
p720
a(S'pass'
p721
S'pass'
p722
S'pass'
p723
S'pass'
p724
tp725
aa(lp726
S'voldemort.store.bdb.BdbStorageEngineTest.testCloseIsIdempotent[0]'
p727
a(S'pass'
p728
S'pass'
p729
S'pass'
p730
S'pass'
p731
tp732
aa(lp733
S'voldemort.store.bdb.BdbStorageEngineTest.testGetAndLock[1]'
p734
a(S'pass'
p735
S'pass'
p736
S'pass'
p737
S'pass'
p738
tp739
aa(lp740
S'voldemort.store.bdb.BdbStorageEngineTest.testPutAndLock[1]'
p741
a(S'pass'
p742
S'pass'
p743
S'pass'
p744
S'pass'
p745
tp746
aa(lp747
S'voldemort.store.bdb.BdbStorageEngineTest.testSimultaneousIterationAndModification[1]'
p748
a(S'pass'
p749
S'pass'
p750
S'pass'
p751
S'pass'
p752
tp753
aa(lp754
S'voldemort.store.bdb.BdbStorageEngineTest.testNativeBackup[1]'
p755
a(S'pass'
p756
S'pass'
p757
S'pass'
p758
S'pass'
p759
tp760
aa(lp761
S'voldemort.store.bdb.BdbStorageEngineTest.testPersistence[1]'
p762
a(S'pass'
p763
S'pass'
p764
S'pass'
p765
S'pass'
p766
tp767
aa(lp768
S'voldemort.store.bdb.BdbStorageEngineTest.testEquals[1]'
p769
a(S'pass'
p770
S'pass'
p771
S'pass'
p772
S'pass'
p773
tp774
aa(lp775
S'voldemort.store.bdb.BdbStorageEngineTest.testNullConstructorParameters[1]'
p776
a(S'pass'
p777
S'pass'
p778
S'pass'
p779
S'pass'
p780
tp781
aa(lp782
S'voldemort.store.bdb.BdbStorageEngineTest.testConcurrentReadAndPut[1]'
p783
a(S'pass'
p784
S'pass'
p785
S'pass'
p786
S'pass'
p787
tp788
aa(lp789
S'voldemort.store.bdb.BdbStorageEngineTest.testGetNoEntries[1]'
p790
a(S'pass'
p791
S'pass'
p792
S'pass'
p793
S'pass'
p794
tp795
aa(lp796
S'voldemort.store.bdb.BdbStorageEngineTest.testGetNoKeys[1]'
p797
a(S'pass'
p798
S'pass'
p799
S'pass'
p800
S'pass'
p801
tp802
aa(lp803
S'voldemort.store.bdb.BdbStorageEngineTest.testKeyIterationWithSerialization[1]'
p804
a(S'pass'
p805
S'pass'
p806
S'pass'
p807
S'pass'
p808
tp809
aa(lp810
S'voldemort.store.bdb.BdbStorageEngineTest.testIterationWithSerialization[1]'
p811
a(S'pass'
p812
S'pass'
p813
S'pass'
p814
S'pass'
p815
tp816
aa(lp817
S'voldemort.store.bdb.BdbStorageEngineTest.testPruneOnWrite[1]'
p818
a(S'pass'
p819
S'pass'
p820
S'pass'
p821
S'pass'
p822
tp823
aa(lp824
S'voldemort.store.bdb.BdbStorageEngineTest.testTruncate[1]'
p825
a(S'pass'
p826
S'pass'
p827
S'pass'
p828
S'pass'
p829
tp830
aa(lp831
S'voldemort.store.bdb.BdbStorageEngineTest.testMultiVersionPuts[1]'
p832
a(S'pass'
p833
S'pass'
p834
S'pass'
p835
S'pass'
p836
tp837
aa(lp838
S'voldemort.store.bdb.BdbStorageEngineTest.testEntryIteration[1]'
p839
a(S'pass'
p840
S'pass'
p841
S'pass'
p842
S'pass'
p843
tp844
aa(lp845
S'voldemort.store.bdb.BdbStorageEngineTest.testEmptyByteArray[1]'
p846
a(S'pass'
p847
S'pass'
p848
S'pass'
p849
S'pass'
p850
tp851
aa(lp852
S'voldemort.store.bdb.BdbStorageEngineTest.testNullKeys[1]'
p853
a(S'pass'
p854
S'pass'
p855
S'pass'
p856
S'pass'
p857
tp858
aa(lp859
S'voldemort.store.bdb.BdbStorageEngineTest.testPutNullValue[1]'
p860
a(S'pass'
p861
S'pass'
p862
S'pass'
p863
S'pass'
p864
tp865
aa(lp866
S'voldemort.store.bdb.BdbStorageEngineTest.testGetAndDeleteNonExistentKey[1]'
p867
a(S'pass'
p868
S'pass'
p869
S'pass'
p870
S'pass'
p871
tp872
aa(lp873
S'voldemort.store.bdb.BdbStorageEngineTest.testFetchedEqualsPut[1]'
p874
a(S'pass'
p875
S'pass'
p876
S'pass'
p877
S'pass'
p878
tp879
aa(lp880
S'voldemort.store.bdb.BdbStorageEngineTest.testVersionedPut[1]'
p881
a(S'pass'
p882
S'pass'
p883
S'pass'
p884
S'pass'
p885
tp886
aa(lp887
S'voldemort.store.bdb.BdbStorageEngineTest.testDelete[1]'
p888
a(S'pass'
p889
S'pass'
p890
S'pass'
p891
S'pass'
p892
tp893
aa(lp894
S'voldemort.store.bdb.BdbStorageEngineTest.testGetVersions[1]'
p895
a(S'pass'
p896
S'pass'
p897
S'pass'
p898
S'pass'
p899
tp900
aa(lp901
S'voldemort.store.bdb.BdbStorageEngineTest.testGetAll[1]'
p902
a(S'pass'
p903
S'pass'
p904
S'pass'
p905
S'pass'
p906
tp907
aa(lp908
S'voldemort.store.bdb.BdbStorageEngineTest.testGetAllWithAbsentKeys[1]'
p909
a(S'pass'
p910
S'pass'
p911
S'pass'
p912
S'pass'
p913
tp914
aa(lp915
S'voldemort.store.bdb.BdbStorageEngineTest.testCloseIsIdempotent[1]'
p916
a(S'pass'
p917
S'pass'
p918
S'pass'
p919
S'pass'
p920
tp921
aa(lp922
S'voldemort.server.socket.SocketServerTest.testStartOnUsedPortThrowsVoldemortException[0]'
p923
a(S'pass'
p924
S'pass'
p925
S'pass'
p926
S'pass'
p927
tp928
aa(lp929
S'voldemort.server.socket.SocketServerTest.testStartOnUsedPortThrowsVoldemortException[1]'
p930
a(S'pass'
p931
S'pass'
p932
S'pass'
p933
S'pass'
p934
tp935
aa(lp936
S'voldemort.protocol.vold.VoldemortNativeRequestFormatTest.testNullKeys[0]'
p937
a(S'pass'
p938
S'pass'
p939
S'pass'
p940
S'pass'
p941
tp942
aa(lp943
S'voldemort.protocol.vold.VoldemortNativeRequestFormatTest.testGetRequests[0]'
p944
a(S'pass'
p945
S'pass'
p946
S'pass'
p947
S'pass'
p948
tp949
aa(lp950
S'voldemort.protocol.vold.VoldemortNativeRequestFormatTest.testGetAllRequests[0]'
p951
a(S'pass'
p952
S'pass'
p953
S'pass'
p954
S'pass'
p955
tp956
aa(lp957
S'voldemort.protocol.vold.VoldemortNativeRequestFormatTest.testPutRequests[0]'
p958
a(S'pass'
p959
S'pass'
p960
S'pass'
p961
S'pass'
p962
tp963
aa(lp964
S'voldemort.protocol.vold.VoldemortNativeRequestFormatTest.testDeleteRequests[0]'
p965
a(S'pass'
p966
S'pass'
p967
S'pass'
p968
S'pass'
p969
tp970
aa(lp971
S'voldemort.protocol.vold.VoldemortNativeRequestFormatTest.testNullKeys[1]'
p972
a(S'pass'
p973
S'pass'
p974
S'pass'
p975
S'pass'
p976
tp977
aa(lp978
S'voldemort.protocol.vold.VoldemortNativeRequestFormatTest.testGetRequests[1]'
p979
a(S'pass'
p980
S'pass'
p981
S'pass'
p982
S'pass'
p983
tp984
aa(lp985
S'voldemort.protocol.vold.VoldemortNativeRequestFormatTest.testGetAllRequests[1]'
p986
a(S'pass'
p987
S'pass'
p988
S'pass'
p989
S'pass'
p990
tp991
aa(lp992
S'voldemort.protocol.vold.VoldemortNativeRequestFormatTest.testPutRequests[1]'
p993
a(S'pass'
p994
S'pass'
p995
S'pass'
p996
S'pass'
p997
tp998
aa(lp999
S'voldemort.protocol.vold.VoldemortNativeRequestFormatTest.testDeleteRequests[1]'
p1000
a(S'pass'
p1001
S'pass'
p1002
S'pass'
p1003
S'pass'
p1004
tp1005
aa(lp1006
S'voldemort.protocol.vold.VoldemortNativeRequestFormatTest.testNullKeys[2]'
p1007
a(S'pass'
p1008
S'pass'
p1009
S'pass'
p1010
S'pass'
p1011
tp1012
aa(lp1013
S'voldemort.protocol.vold.VoldemortNativeRequestFormatTest.testGetRequests[2]'
p1014
a(S'pass'
p1015
S'pass'
p1016
S'pass'
p1017
S'pass'
p1018
tp1019
aa(lp1020
S'voldemort.protocol.vold.VoldemortNativeRequestFormatTest.testGetAllRequests[2]'
p1021
a(S'pass'
p1022
S'pass'
p1023
S'pass'
p1024
S'pass'
p1025
tp1026
aa(lp1027
S'voldemort.protocol.vold.VoldemortNativeRequestFormatTest.testPutRequests[2]'
p1028
a(S'pass'
p1029
S'pass'
p1030
S'pass'
p1031
S'pass'
p1032
tp1033
aa(lp1034
S'voldemort.protocol.vold.VoldemortNativeRequestFormatTest.testDeleteRequests[2]'
p1035
a(S'pass'
p1036
S'pass'
p1037
S'pass'
p1038
S'pass'
p1039
tp1040
aa(lp1041
S'voldemort.store.routed.ZoneAffinityGetAllTest.testLocalZoneDown[0]'
p1042
a(S'pass'
p1043
S'pass'
p1044
S'pass'
p1045
S'pass'
p1046
tp1047
aa(lp1048
S'voldemort.store.routed.ZoneAffinityGetAllTest.testLocalZonePartialDownSufficientReads[0]'
p1049
a(S'pass'
p1050
S'pass'
p1051
S'pass'
p1052
S'pass'
p1053
tp1054
aa(lp1055
S'voldemort.store.routed.ZoneAffinityGetAllTest.testLocalZonePartialDownInSufficientReads[0]'
p1056
a(S'pass'
p1057
S'pass'
p1058
S'pass'
p1059
S'pass'
p1060
tp1061
aa(lp1062
S'voldemort.store.routed.ZoneAffinityGetAllTest.testAllUp[0]'
p1063
a(S'pass'
p1064
S'pass'
p1065
S'pass'
p1066
S'pass'
p1067
tp1068
aa(lp1069
S'voldemort.store.routed.ZoneAffinityGetAllTest.testLocalZoneDown[1]'
p1070
a(S'pass'
p1071
S'pass'
p1072
S'pass'
p1073
S'pass'
p1074
tp1075
aa(lp1076
S'voldemort.store.routed.ZoneAffinityGetAllTest.testLocalZonePartialDownSufficientReads[1]'
p1077
a(S'pass'
p1078
S'pass'
p1079
S'pass'
p1080
S'fail'
p1081
tp1082
aa(lp1083
S'voldemort.store.routed.ZoneAffinityGetAllTest.testLocalZonePartialDownInSufficientReads[1]'
p1084
a(S'pass'
p1085
S'pass'
p1086
S'pass'
p1087
S'pass'
p1088
tp1089
aa(lp1090
S'voldemort.store.routed.ZoneAffinityGetAllTest.testAllUp[1]'
p1091
a(S'pass'
p1092
S'pass'
p1093
S'pass'
p1094
S'pass'
p1095
tp1096
aa(lp1097
S'voldemort.store.routed.ZoneAffinityGetAllTest.testLocalZoneDown[2]'
p1098
a(S'pass'
p1099
S'pass'
p1100
S'pass'
p1101
S'fail'
p1102
tp1103
aa(lp1104
S'voldemort.store.routed.ZoneAffinityGetAllTest.testLocalZonePartialDownSufficientReads[2]'
p1105
a(S'pass'
p1106
S'pass'
p1107
S'pass'
p1108
S'fail'
p1109
tp1110
aa(lp1111
S'voldemort.store.routed.ZoneAffinityGetAllTest.testLocalZonePartialDownInSufficientReads[2]'
p1112
a(S'pass'
p1113
S'pass'
p1114
S'pass'
p1115
S'fail'
p1116
tp1117
aa(lp1118
S'voldemort.store.routed.ZoneAffinityGetAllTest.testAllUp[2]'
p1119
a(S'pass'
p1120
S'pass'
p1121
S'pass'
p1122
S'fail'
p1123
tp1124
aa(lp1125
S'voldemort.store.routed.ZoneAffinityGetAllTest.testLocalZoneDown[3]'
p1126
a(S'pass'
p1127
S'pass'
p1128
S'pass'
p1129
S'fail'
p1130
tp1131
aa(lp1132
S'voldemort.store.routed.ZoneAffinityGetAllTest.testLocalZonePartialDownSufficientReads[3]'
p1133
a(S'pass'
p1134
S'pass'
p1135
S'pass'
p1136
S'fail'
p1137
tp1138
aa(lp1139
S'voldemort.store.routed.ZoneAffinityGetAllTest.testLocalZonePartialDownInSufficientReads[3]'
p1140
a(S'pass'
p1141
S'pass'
p1142
S'pass'
p1143
S'fail'
p1144
tp1145
aa(lp1146
S'voldemort.store.routed.ZoneAffinityGetAllTest.testAllUp[3]'
p1147
a(S'pass'
p1148
S'pass'
p1149
S'pass'
p1150
S'fail'
p1151
tp1152
aa(lp1153
S'voldemort.store.routed.ZoneAffinityGetAllTest.testLocalZoneDown[4]'
p1154
a(S'pass'
p1155
S'pass'
p1156
S'pass'
p1157
S'fail'
p1158
tp1159
aa(lp1160
S'voldemort.store.routed.ZoneAffinityGetAllTest.testLocalZonePartialDownSufficientReads[4]'
p1161
a(S'pass'
p1162
S'pass'
p1163
S'pass'
p1164
S'fail'
p1165
tp1166
aa(lp1167
S'voldemort.store.routed.ZoneAffinityGetAllTest.testLocalZonePartialDownInSufficientReads[4]'
p1168
a(S'pass'
p1169
S'pass'
p1170
S'pass'
p1171
S'fail'
p1172
tp1173
aa(lp1174
S'voldemort.store.routed.ZoneAffinityGetAllTest.testAllUp[4]'
p1175
a(S'pass'
p1176
S'pass'
p1177
S'pass'
p1178
S'fail'
p1179
tp1180
aa(lp1181
S'voldemort.store.socket.VoldemortNativeSocketStoreTest.testVeryLargeValues[0]'
p1182
a(S'pass'
p1183
S'pass'
p1184
S'pass'
p1185
S'pass'
p1186
tp1187
aa(lp1188
S'voldemort.store.socket.VoldemortNativeSocketStoreTest.testThreadOverload[0]'
p1189
a(S'pass'
p1190
S'pass'
p1191
S'pass'
p1192
S'pass'
p1193
tp1194
aa(lp1195
S'voldemort.store.socket.VoldemortNativeSocketStoreTest.testRepeatedClosedConnections[0]'
p1196
a(S'pass'
p1197
S'pass'
p1198
S'pass'
p1199
S'pass'
p1200
tp1201
aa(lp1202
S'voldemort.store.socket.VoldemortNativeSocketStoreTest.testGetAllWithBigValueSizes[0]'
p1203
a(S'pass'
p1204
S'pass'
p1205
S'pass'
p1206
S'pass'
p1207
tp1208
aa(lp1209
S'voldemort.store.socket.VoldemortNativeSocketStoreTest.testGetWithBigValueSizes[0]'
p1210
a(S'pass'
p1211
S'pass'
p1212
S'pass'
p1213
S'pass'
p1214
tp1215
aa(lp1216
S'voldemort.store.socket.VoldemortNativeSocketStoreTest.testEmptyByteArray[0]'
p1217
a(S'pass'
p1218
S'pass'
p1219
S'pass'
p1220
S'pass'
p1221
tp1222
aa(lp1223
S'voldemort.store.socket.VoldemortNativeSocketStoreTest.testNullKeys[0]'
p1224
a(S'pass'
p1225
S'pass'
p1226
S'pass'
p1227
S'pass'
p1228
tp1229
aa(lp1230
S'voldemort.store.socket.VoldemortNativeSocketStoreTest.testPutNullValue[0]'
p1231
a(S'pass'
p1232
S'pass'
p1233
S'pass'
p1234
S'pass'
p1235
tp1236
aa(lp1237
S'voldemort.store.socket.VoldemortNativeSocketStoreTest.testGetAndDeleteNonExistentKey[0]'
p1238
a(S'pass'
p1239
S'pass'
p1240
S'pass'
p1241
S'pass'
p1242
tp1243
aa(lp1244
S'voldemort.store.socket.VoldemortNativeSocketStoreTest.testFetchedEqualsPut[0]'
p1245
a(S'pass'
p1246
S'pass'
p1247
S'pass'
p1248
S'pass'
p1249
tp1250
aa(lp1251
S'voldemort.store.socket.VoldemortNativeSocketStoreTest.testVersionedPut[0]'
p1252
a(S'pass'
p1253
S'pass'
p1254
S'pass'
p1255
S'pass'
p1256
tp1257
aa(lp1258
S'voldemort.store.socket.VoldemortNativeSocketStoreTest.testDelete[0]'
p1259
a(S'pass'
p1260
S'pass'
p1261
S'pass'
p1262
S'pass'
p1263
tp1264
aa(lp1265
S'voldemort.store.socket.VoldemortNativeSocketStoreTest.testGetVersions[0]'
p1266
a(S'pass'
p1267
S'pass'
p1268
S'pass'
p1269
S'pass'
p1270
tp1271
aa(lp1272
S'voldemort.store.socket.VoldemortNativeSocketStoreTest.testGetAll[0]'
p1273
a(S'pass'
p1274
S'pass'
p1275
S'pass'
p1276
S'pass'
p1277
tp1278
aa(lp1279
S'voldemort.store.socket.VoldemortNativeSocketStoreTest.testGetAllWithAbsentKeys[0]'
p1280
a(S'pass'
p1281
S'pass'
p1282
S'pass'
p1283
S'pass'
p1284
tp1285
aa(lp1286
S'voldemort.store.socket.VoldemortNativeSocketStoreTest.testCloseIsIdempotent[0]'
p1287
a(S'pass'
p1288
S'pass'
p1289
S'pass'
p1290
S'pass'
p1291
tp1292
aa(lp1293
S'voldemort.store.socket.VoldemortNativeSocketStoreTest.testVeryLargeValues[1]'
p1294
a(S'pass'
p1295
S'pass'
p1296
S'pass'
p1297
S'pass'
p1298
tp1299
aa(lp1300
S'voldemort.store.socket.VoldemortNativeSocketStoreTest.testThreadOverload[1]'
p1301
a(S'pass'
p1302
S'pass'
p1303
S'pass'
p1304
S'pass'
p1305
tp1306
aa(lp1307
S'voldemort.store.socket.VoldemortNativeSocketStoreTest.testRepeatedClosedConnections[1]'
p1308
a(S'pass'
p1309
S'pass'
p1310
S'pass'
p1311
S'pass'
p1312
tp1313
aa(lp1314
S'voldemort.store.socket.VoldemortNativeSocketStoreTest.testGetAllWithBigValueSizes[1]'
p1315
a(S'pass'
p1316
S'pass'
p1317
S'pass'
p1318
S'pass'
p1319
tp1320
aa(lp1321
S'voldemort.store.socket.VoldemortNativeSocketStoreTest.testGetWithBigValueSizes[1]'
p1322
a(S'pass'
p1323
S'pass'
p1324
S'pass'
p1325
S'pass'
p1326
tp1327
aa(lp1328
S'voldemort.store.socket.VoldemortNativeSocketStoreTest.testEmptyByteArray[1]'
p1329
a(S'pass'
p1330
S'pass'
p1331
S'pass'
p1332
S'pass'
p1333
tp1334
aa(lp1335
S'voldemort.store.socket.VoldemortNativeSocketStoreTest.testNullKeys[1]'
p1336
a(S'pass'
p1337
S'pass'
p1338
S'pass'
p1339
S'pass'
p1340
tp1341
aa(lp1342
S'voldemort.store.socket.VoldemortNativeSocketStoreTest.testPutNullValue[1]'
p1343
a(S'pass'
p1344
S'pass'
p1345
S'pass'
p1346
S'pass'
p1347
tp1348
aa(lp1349
S'voldemort.store.socket.VoldemortNativeSocketStoreTest.testGetAndDeleteNonExistentKey[1]'
p1350
a(S'pass'
p1351
S'pass'
p1352
S'pass'
p1353
S'pass'
p1354
tp1355
aa(lp1356
S'voldemort.store.socket.VoldemortNativeSocketStoreTest.testFetchedEqualsPut[1]'
p1357
a(S'pass'
p1358
S'pass'
p1359
S'pass'
p1360
S'pass'
p1361
tp1362
aa(lp1363
S'voldemort.store.socket.VoldemortNativeSocketStoreTest.testVersionedPut[1]'
p1364
a(S'pass'
p1365
S'pass'
p1366
S'pass'
p1367
S'pass'
p1368
tp1369
aa(lp1370
S'voldemort.store.socket.VoldemortNativeSocketStoreTest.testDelete[1]'
p1371
a(S'pass'
p1372
S'pass'
p1373
S'pass'
p1374
S'pass'
p1375
tp1376
aa(lp1377
S'voldemort.store.socket.VoldemortNativeSocketStoreTest.testGetVersions[1]'
p1378
a(S'pass'
p1379
S'pass'
p1380
S'pass'
p1381
S'pass'
p1382
tp1383
aa(lp1384
S'voldemort.store.socket.VoldemortNativeSocketStoreTest.testGetAll[1]'
p1385
a(S'pass'
p1386
S'pass'
p1387
S'pass'
p1388
S'pass'
p1389
tp1390
aa(lp1391
S'voldemort.store.socket.VoldemortNativeSocketStoreTest.testGetAllWithAbsentKeys[1]'
p1392
a(S'pass'
p1393
S'pass'
p1394
S'pass'
p1395
S'pass'
p1396
tp1397
aa(lp1398
S'voldemort.store.socket.VoldemortNativeSocketStoreTest.testCloseIsIdempotent[1]'
p1399
a(S'pass'
p1400
S'pass'
p1401
S'pass'
p1402
S'pass'
p1403
tp1404
aa(lp1405
S'voldemort.store.socket.VoldemortNativeSocketStoreTest.testVeryLargeValues[2]'
p1406
a(S'pass'
p1407
S'pass'
p1408
S'pass'
p1409
S'pass'
p1410
tp1411
aa(lp1412
S'voldemort.store.socket.VoldemortNativeSocketStoreTest.testThreadOverload[2]'
p1413
a(S'pass'
p1414
S'pass'
p1415
S'pass'
p1416
S'pass'
p1417
tp1418
aa(lp1419
S'voldemort.store.socket.VoldemortNativeSocketStoreTest.testRepeatedClosedConnections[2]'
p1420
a(S'pass'
p1421
S'pass'
p1422
S'pass'
p1423
S'pass'
p1424
tp1425
aa(lp1426
S'voldemort.store.socket.VoldemortNativeSocketStoreTest.testGetAllWithBigValueSizes[2]'
p1427
a(S'pass'
p1428
S'pass'
p1429
S'pass'
p1430
S'pass'
p1431
tp1432
aa(lp1433
S'voldemort.store.socket.VoldemortNativeSocketStoreTest.testGetWithBigValueSizes[2]'
p1434
a(S'pass'
p1435
S'pass'
p1436
S'pass'
p1437
S'pass'
p1438
tp1439
aa(lp1440
S'voldemort.store.socket.VoldemortNativeSocketStoreTest.testEmptyByteArray[2]'
p1441
a(S'pass'
p1442
S'pass'
p1443
S'pass'
p1444
S'pass'
p1445
tp1446
aa(lp1447
S'voldemort.store.socket.VoldemortNativeSocketStoreTest.testNullKeys[2]'
p1448
a(S'pass'
p1449
S'pass'
p1450
S'pass'
p1451
S'pass'
p1452
tp1453
aa(lp1454
S'voldemort.store.socket.VoldemortNativeSocketStoreTest.testPutNullValue[2]'
p1455
a(S'pass'
p1456
S'pass'
p1457
S'pass'
p1458
S'pass'
p1459
tp1460
aa(lp1461
S'voldemort.store.socket.VoldemortNativeSocketStoreTest.testGetAndDeleteNonExistentKey[2]'
p1462
a(S'pass'
p1463
S'pass'
p1464
S'pass'
p1465
S'pass'
p1466
tp1467
aa(lp1468
S'voldemort.store.socket.VoldemortNativeSocketStoreTest.testFetchedEqualsPut[2]'
p1469
a(S'pass'
p1470
S'pass'
p1471
S'pass'
p1472
S'pass'
p1473
tp1474
aa(lp1475
S'voldemort.store.socket.VoldemortNativeSocketStoreTest.testVersionedPut[2]'
p1476
a(S'pass'
p1477
S'pass'
p1478
S'pass'
p1479
S'pass'
p1480
tp1481
aa(lp1482
S'voldemort.store.socket.VoldemortNativeSocketStoreTest.testDelete[2]'
p1483
a(S'pass'
p1484
S'pass'
p1485
S'pass'
p1486
S'pass'
p1487
tp1488
aa(lp1489
S'voldemort.store.socket.VoldemortNativeSocketStoreTest.testGetVersions[2]'
p1490
a(S'pass'
p1491
S'pass'
p1492
S'pass'
p1493
S'pass'
p1494
tp1495
aa(lp1496
S'voldemort.store.socket.VoldemortNativeSocketStoreTest.testGetAll[2]'
p1497
a(S'pass'
p1498
S'pass'
p1499
S'pass'
p1500
S'pass'
p1501
tp1502
aa(lp1503
S'voldemort.store.socket.VoldemortNativeSocketStoreTest.testGetAllWithAbsentKeys[2]'
p1504
a(S'pass'
p1505
S'pass'
p1506
S'pass'
p1507
S'pass'
p1508
tp1509
aa(lp1510
S'voldemort.store.socket.VoldemortNativeSocketStoreTest.testCloseIsIdempotent[2]'
p1511
a(S'pass'
p1512
S'pass'
p1513
S'pass'
p1514
S'pass'
p1515
tp1516
aa(lp1517
S'voldemort.store.socket.VoldemortNativeSocketStoreTest.testVeryLargeValues[3]'
p1518
a(S'pass'
p1519
S'pass'
p1520
S'pass'
p1521
S'pass'
p1522
tp1523
aa(lp1524
S'voldemort.store.socket.VoldemortNativeSocketStoreTest.testThreadOverload[3]'
p1525
a(S'pass'
p1526
S'pass'
p1527
S'pass'
p1528
S'pass'
p1529
tp1530
aa(lp1531
S'voldemort.store.socket.VoldemortNativeSocketStoreTest.testRepeatedClosedConnections[3]'
p1532
a(S'pass'
p1533
S'pass'
p1534
S'pass'
p1535
S'pass'
p1536
tp1537
aa(lp1538
S'voldemort.store.socket.VoldemortNativeSocketStoreTest.testGetAllWithBigValueSizes[3]'
p1539
a(S'pass'
p1540
S'pass'
p1541
S'pass'
p1542
S'pass'
p1543
tp1544
aa(lp1545
S'voldemort.store.socket.VoldemortNativeSocketStoreTest.testGetWithBigValueSizes[3]'
p1546
a(S'pass'
p1547
S'pass'
p1548
S'pass'
p1549
S'pass'
p1550
tp1551
aa(lp1552
S'voldemort.store.socket.VoldemortNativeSocketStoreTest.testEmptyByteArray[3]'
p1553
a(S'pass'
p1554
S'pass'
p1555
S'pass'
p1556
S'pass'
p1557
tp1558
aa(lp1559
S'voldemort.store.socket.VoldemortNativeSocketStoreTest.testNullKeys[3]'
p1560
a(S'pass'
p1561
S'pass'
p1562
S'pass'
p1563
S'pass'
p1564
tp1565
aa(lp1566
S'voldemort.store.socket.VoldemortNativeSocketStoreTest.testPutNullValue[3]'
p1567
a(S'pass'
p1568
S'pass'
p1569
S'pass'
p1570
S'pass'
p1571
tp1572
aa(lp1573
S'voldemort.store.socket.VoldemortNativeSocketStoreTest.testGetAndDeleteNonExistentKey[3]'
p1574
a(S'pass'
p1575
S'pass'
p1576
S'pass'
p1577
S'pass'
p1578
tp1579
aa(lp1580
S'voldemort.store.socket.VoldemortNativeSocketStoreTest.testFetchedEqualsPut[3]'
p1581
a(S'pass'
p1582
S'pass'
p1583
S'pass'
p1584
S'pass'
p1585
tp1586
aa(lp1587
S'voldemort.store.socket.VoldemortNativeSocketStoreTest.testVersionedPut[3]'
p1588
a(S'pass'
p1589
S'pass'
p1590
S'pass'
p1591
S'pass'
p1592
tp1593
aa(lp1594
S'voldemort.store.socket.VoldemortNativeSocketStoreTest.testDelete[3]'
p1595
a(S'pass'
p1596
S'pass'
p1597
S'pass'
p1598
S'pass'
p1599
tp1600
aa(lp1601
S'voldemort.store.socket.VoldemortNativeSocketStoreTest.testGetVersions[3]'
p1602
a(S'pass'
p1603
S'pass'
p1604
S'pass'
p1605
S'pass'
p1606
tp1607
aa(lp1608
S'voldemort.store.socket.VoldemortNativeSocketStoreTest.testGetAll[3]'
p1609
a(S'pass'
p1610
S'pass'
p1611
S'pass'
p1612
S'pass'
p1613
tp1614
aa(lp1615
S'voldemort.store.socket.VoldemortNativeSocketStoreTest.testGetAllWithAbsentKeys[3]'
p1616
a(S'pass'
p1617
S'pass'
p1618
S'pass'
p1619
S'pass'
p1620
tp1621
aa(lp1622
S'voldemort.store.socket.VoldemortNativeSocketStoreTest.testCloseIsIdempotent[3]'
p1623
a(S'pass'
p1624
S'pass'
p1625
S'pass'
p1626
S'pass'
p1627
tp1628
aa(lp1629
S'voldemort.store.socket.VoldemortNativeSocketStoreTest.testVeryLargeValues[4]'
p1630
a(S'pass'
p1631
S'pass'
p1632
S'pass'
p1633
S'pass'
p1634
tp1635
aa(lp1636
S'voldemort.store.socket.VoldemortNativeSocketStoreTest.testThreadOverload[4]'
p1637
a(S'pass'
p1638
S'pass'
p1639
S'pass'
p1640
S'pass'
p1641
tp1642
aa(lp1643
S'voldemort.store.socket.VoldemortNativeSocketStoreTest.testRepeatedClosedConnections[4]'
p1644
a(S'pass'
p1645
S'pass'
p1646
S'pass'
p1647
S'pass'
p1648
tp1649
aa(lp1650
S'voldemort.store.socket.VoldemortNativeSocketStoreTest.testGetAllWithBigValueSizes[4]'
p1651
a(S'pass'
p1652
S'pass'
p1653
S'pass'
p1654
S'pass'
p1655
tp1656
aa(lp1657
S'voldemort.store.socket.VoldemortNativeSocketStoreTest.testGetWithBigValueSizes[4]'
p1658
a(S'pass'
p1659
S'pass'
p1660
S'pass'
p1661
S'pass'
p1662
tp1663
aa(lp1664
S'voldemort.store.socket.VoldemortNativeSocketStoreTest.testEmptyByteArray[4]'
p1665
a(S'pass'
p1666
S'pass'
p1667
S'pass'
p1668
S'pass'
p1669
tp1670
aa(lp1671
S'voldemort.store.socket.VoldemortNativeSocketStoreTest.testNullKeys[4]'
p1672
a(S'pass'
p1673
S'pass'
p1674
S'pass'
p1675
S'pass'
p1676
tp1677
aa(lp1678
S'voldemort.store.socket.VoldemortNativeSocketStoreTest.testPutNullValue[4]'
p1679
a(S'pass'
p1680
S'pass'
p1681
S'pass'
p1682
S'pass'
p1683
tp1684
aa(lp1685
S'voldemort.store.socket.VoldemortNativeSocketStoreTest.testGetAndDeleteNonExistentKey[4]'
p1686
a(S'pass'
p1687
S'pass'
p1688
S'pass'
p1689
S'pass'
p1690
tp1691
aa(lp1692
S'voldemort.store.socket.VoldemortNativeSocketStoreTest.testFetchedEqualsPut[4]'
p1693
a(S'pass'
p1694
S'pass'
p1695
S'pass'
p1696
S'pass'
p1697
tp1698
aa(lp1699
S'voldemort.store.socket.VoldemortNativeSocketStoreTest.testVersionedPut[4]'
p1700
a(S'pass'
p1701
S'pass'
p1702
S'pass'
p1703
S'pass'
p1704
tp1705
aa(lp1706
S'voldemort.store.socket.VoldemortNativeSocketStoreTest.testDelete[4]'
p1707
a(S'pass'
p1708
S'pass'
p1709
S'pass'
p1710
S'pass'
p1711
tp1712
aa(lp1713
S'voldemort.store.socket.VoldemortNativeSocketStoreTest.testGetVersions[4]'
p1714
a(S'pass'
p1715
S'pass'
p1716
S'pass'
p1717
S'pass'
p1718
tp1719
aa(lp1720
S'voldemort.store.socket.VoldemortNativeSocketStoreTest.testGetAll[4]'
p1721
a(S'pass'
p1722
S'pass'
p1723
S'pass'
p1724
S'pass'
p1725
tp1726
aa(lp1727
S'voldemort.store.socket.VoldemortNativeSocketStoreTest.testGetAllWithAbsentKeys[4]'
p1728
a(S'pass'
p1729
S'pass'
p1730
S'pass'
p1731
S'pass'
p1732
tp1733
aa(lp1734
S'voldemort.store.socket.VoldemortNativeSocketStoreTest.testCloseIsIdempotent[4]'
p1735
a(S'pass'
p1736
S'pass'
p1737
S'pass'
p1738
S'pass'
p1739
tp1740
aa(lp1741
S'voldemort.store.socket.VoldemortNativeSocketStoreTest.testVeryLargeValues[5]'
p1742
a(S'pass'
p1743
S'pass'
p1744
S'pass'
p1745
S'pass'
p1746
tp1747
aa(lp1748
S'voldemort.store.socket.VoldemortNativeSocketStoreTest.testThreadOverload[5]'
p1749
a(S'pass'
p1750
S'pass'
p1751
S'pass'
p1752
S'pass'
p1753
tp1754
aa(lp1755
S'voldemort.store.socket.VoldemortNativeSocketStoreTest.testRepeatedClosedConnections[5]'
p1756
a(S'pass'
p1757
S'pass'
p1758
S'pass'
p1759
S'pass'
p1760
tp1761
aa(lp1762
S'voldemort.store.socket.VoldemortNativeSocketStoreTest.testGetAllWithBigValueSizes[5]'
p1763
a(S'pass'
p1764
S'pass'
p1765
S'pass'
p1766
S'pass'
p1767
tp1768
aa(lp1769
S'voldemort.store.socket.VoldemortNativeSocketStoreTest.testGetWithBigValueSizes[5]'
p1770
a(S'pass'
p1771
S'pass'
p1772
S'pass'
p1773
S'pass'
p1774
tp1775
aa(lp1776
S'voldemort.store.socket.VoldemortNativeSocketStoreTest.testEmptyByteArray[5]'
p1777
a(S'pass'
p1778
S'pass'
p1779
S'pass'
p1780
S'pass'
p1781
tp1782
aa(lp1783
S'voldemort.store.socket.VoldemortNativeSocketStoreTest.testNullKeys[5]'
p1784
a(S'pass'
p1785
S'pass'
p1786
S'pass'
p1787
S'pass'
p1788
tp1789
aa(lp1790
S'voldemort.store.socket.VoldemortNativeSocketStoreTest.testPutNullValue[5]'
p1791
a(S'pass'
p1792
S'pass'
p1793
S'pass'
p1794
S'pass'
p1795
tp1796
aa(lp1797
S'voldemort.store.socket.VoldemortNativeSocketStoreTest.testGetAndDeleteNonExistentKey[5]'
p1798
a(S'pass'
p1799
S'pass'
p1800
S'pass'
p1801
S'pass'
p1802
tp1803
aa(lp1804
S'voldemort.store.socket.VoldemortNativeSocketStoreTest.testFetchedEqualsPut[5]'
p1805
a(S'pass'
p1806
S'pass'
p1807
S'pass'
p1808
S'pass'
p1809
tp1810
aa(lp1811
S'voldemort.store.socket.VoldemortNativeSocketStoreTest.testVersionedPut[5]'
p1812
a(S'pass'
p1813
S'pass'
p1814
S'pass'
p1815
S'pass'
p1816
tp1817
aa(lp1818
S'voldemort.store.socket.VoldemortNativeSocketStoreTest.testDelete[5]'
p1819
a(S'pass'
p1820
S'pass'
p1821
S'pass'
p1822
S'pass'
p1823
tp1824
aa(lp1825
S'voldemort.store.socket.VoldemortNativeSocketStoreTest.testGetVersions[5]'
p1826
a(S'pass'
p1827
S'pass'
p1828
S'pass'
p1829
S'pass'
p1830
tp1831
aa(lp1832
S'voldemort.store.socket.VoldemortNativeSocketStoreTest.testGetAll[5]'
p1833
a(S'pass'
p1834
S'pass'
p1835
S'pass'
p1836
S'pass'
p1837
tp1838
aa(lp1839
S'voldemort.store.socket.VoldemortNativeSocketStoreTest.testGetAllWithAbsentKeys[5]'
p1840
a(S'pass'
p1841
S'pass'
p1842
S'pass'
p1843
S'pass'
p1844
tp1845
aa(lp1846
S'voldemort.store.socket.VoldemortNativeSocketStoreTest.testCloseIsIdempotent[5]'
p1847
a(S'pass'
p1848
S'pass'
p1849
S'pass'
p1850
S'pass'
p1851
tp1852
aa(lp1853
S'voldemort.client.protocol.admin.QueryKeyResultTest.testExceptionCtor'
p1854
a(S'pass'
p1855
S'pass'
p1856
S'pass'
p1857
S'pass'
p1858
tp1859
aa(lp1860
S'voldemort.client.protocol.admin.QueryKeyResultTest.testStandardCtor'
p1861
a(S'pass'
p1862
S'pass'
p1863
S'pass'
p1864
S'pass'
p1865
tp1866
aa(lp1867
S'voldemort.versioning.ChainedInconsistencyResolverTest.testVersionedPut'
p1868
a(S'pass'
p1869
S'pass'
p1870
S'pass'
p1871
S'pass'
p1872
tp1873
aa(lp1874
S'voldemort.versioning.ChainedInconsistencyResolverTest.testNormalPut'
p1875
a(S'pass'
p1876
S'pass'
p1877
S'pass'
p1878
S'pass'
p1879
tp1880
aa(lp1881
S'voldemort.versioning.ChainedInconsistencyResolverTest.testMoreConflicts'
p1882
a(S'pass'
p1883
S'pass'
p1884
S'pass'
p1885
S'pass'
p1886
tp1887
aa(lp1888
S'voldemort.server.VoldemortServerTest.testJCEProvider'
p1889
a(S'pass'
p1890
S'pass'
p1891
S'pass'
p1892
S'pass'
p1893
tp1894
aa(lp1895
S'voldemort.tools.admin.AvroAddStoreTest.testAddAvroSchema'
p1896
a(S'pass'
p1897
S'pass'
p1898
S'pass'
p1899
S'pass'
p1900
tp1901
aa(lp1902
S'voldemort.tools.admin.AvroAddStoreTest.testUpdateAvroSchema'
p1903
a(S'pass'
p1904
S'pass'
p1905
S'pass'
p1906
S'pass'
p1907
tp1908
aa(lp1909
S'voldemort.client.rebalance.ZoneShrinkageClientTest.testZoneAffinityClient'
p1910
a(S'pass'
p1911
S'pass'
p1912
S'pass'
p1913
S'pass'
p1914
tp1915
aa(lp1916
S'voldemort.client.CachingStoreClientFactoryTest.testBootstrapAll[0]'
p1917
a(S'pass'
p1918
S'pass'
p1919
S'pass'
p1920
S'pass'
p1921
tp1922
aa(lp1923
S'voldemort.client.CachingStoreClientFactoryTest.testCaching[0]'
p1924
a(S'pass'
p1925
S'pass'
p1926
S'pass'
p1927
S'pass'
p1928
tp1929
aa(lp1930
S'voldemort.client.CachingStoreClientFactoryTest.testBootstrapAll[1]'
p1931
a(S'pass'
p1932
S'pass'
p1933
S'pass'
p1934
S'pass'
p1935
tp1936
aa(lp1937
S'voldemort.client.CachingStoreClientFactoryTest.testCaching[1]'
p1938
a(S'pass'
p1939
S'pass'
p1940
S'pass'
p1941
S'pass'
p1942
tp1943
aa(lp1944
S'voldemort.client.rebalance.ZonedRebalanceNonContiguousZonesTest.testNoopZ1Z3'
p1945
a(S'pass'
p1946
S'pass'
p1947
S'pass'
p1948
S'pass'
p1949
tp1950
aa(lp1951
S'voldemort.client.rebalance.ZonedRebalanceNonContiguousZonesTest.testShuffleZ1Z3'
p1952
a(S'pass'
p1953
S'pass'
p1954
S'pass'
p1955
S'pass'
p1956
tp1957
aa(lp1958
S'voldemort.client.rebalance.ZonedRebalanceNonContiguousZonesTest.testShuffleZ1Z3AndShuffleAgain'
p1959
a(S'pass'
p1960
S'pass'
p1961
S'pass'
p1962
S'pass'
p1963
tp1964
aa(lp1965
S'voldemort.client.rebalance.ZonedRebalanceNonContiguousZonesTest.testClusterExpansion'
p1966
a(S'pass'
p1967
S'pass'
p1968
S'pass'
p1969
S'pass'
p1970
tp1971
aa(lp1972
S'voldemort.client.rebalance.ZonedRebalanceNonContiguousZonesTest.testNoopZ1Z3Z5'
p1973
a(S'pass'
p1974
S'pass'
p1975
S'pass'
p1976
S'pass'
p1977
tp1978
aa(lp1979
S'voldemort.client.rebalance.ZonedRebalanceNonContiguousZonesTest.testShuffleZ1Z3Z5'
p1980
a(S'pass'
p1981
S'pass'
p1982
S'pass'
p1983
S'pass'
p1984
tp1985
aa(lp1986
S'voldemort.client.rebalance.ZonedRebalanceNonContiguousZonesTest.testClusterExpansionZ1Z3Z5'
p1987
a(S'pass'
p1988
S'pass'
p1989
S'pass'
p1990
S'pass'
p1991
tp1992
aa(lp1993
S'voldemort.client.rebalance.ZonedRebalanceNonContiguousZonesTest.testRWRebalance'
p1994
a(S'pass'
p1995
S'pass'
p1996
S'pass'
p1997
S'pass'
p1998
tp1999
aa(lp2000
S'voldemort.client.rebalance.ZonedRebalanceNonContiguousZonesTest.testRWRebalanceWithReplication'
p2001
a(S'pass'
p2002
S'pass'
p2003
S'pass'
p2004
S'pass'
p2005
tp2006
aa(lp2007
S'voldemort.client.rebalance.ZonedRebalanceNonContiguousZonesTest.testRWRebalanceWithReplicationSerial'
p2008
a(S'pass'
p2009
S'pass'
p2010
S'pass'
p2011
S'pass'
p2012
tp2013
aa(lp2014
S'voldemort.client.rebalance.ZonedRebalanceNonContiguousZonesTest.testRebalanceCleanPrimarySecondary'
p2015
a(S'pass'
p2016
S'pass'
p2017
S'pass'
p2018
S'pass'
p2019
tp2020
aa(lp2021
S'voldemort.client.rebalance.ZonedRebalanceNonContiguousZonesTest.testProxyGetDuringRebalancing'
p2022
a(S'pass'
p2023
S'pass'
p2024
S'pass'
p2025
S'pass'
p2026
tp2027
aa(lp2028
S'voldemort.client.rebalance.ZonedRebalanceNonContiguousZonesTest.testProxyPutDuringRebalancing'
p2029
a(S'pass'
p2030
S'pass'
p2031
S'pass'
p2032
S'pass'
p2033
tp2034
aa(lp2035
S'voldemort.store.routed.NodeValueTest.testHashCodeEquals'
p2036
a(S'pass'
p2037
S'pass'
p2038
S'pass'
p2039
S'pass'
p2040
tp2041
aa(lp2042
S'voldemort.store.routed.NodeValueTest.testMultimap'
p2043
a(S'pass'
p2044
S'pass'
p2045
S'pass'
p2046
S'pass'
p2047
tp2048
aa(lp2049
S'voldemort.store.readonly.swapper.StoreSwapperTest.testAdminStoreSwapper'
p2050
a(S'pass'
p2051
S'pass'
p2052
S'pass'
p2053
S'pass'
p2054
tp2055
aa(lp2056
S'voldemort.store.readonly.swapper.StoreSwapperTest.testAdminStoreSwapperForOffline'
p2057
a(S'pass'
p2058
S'pass'
p2059
S'pass'
p2060
S'pass'
p2061
tp2062
aa(lp2063
S'voldemort.store.readonly.swapper.StoreSwapperTest.testAdminStoreSwapperWithoutRollback'
p2064
a(S'pass'
p2065
S'pass'
p2066
S'pass'
p2067
S'pass'
p2068
tp2069
aa(lp2070
S'voldemort.store.readonly.swapper.StoreSwapperTest.testConcurrencyPush'
p2071
a(S'pass'
p2072
S'pass'
p2073
S'pass'
p2074
S'pass'
p2075
tp2076
aa(lp2077
S'voldemort.server.EndToEndTest.testSanity[0]'
p2078
a(S'pass'
p2079
S'pass'
p2080
S'pass'
p2081
S'pass'
p2082
tp2083
aa(lp2084
S'voldemort.server.EndToEndTest.testPutReturnVersion[0]'
p2085
a(S'pass'
p2086
S'pass'
p2087
S'pass'
p2088
S'pass'
p2089
tp2090
aa(lp2091
S'voldemort.server.EndToEndTest.testUnversionedPutReturnVersion[0]'
p2092
a(S'pass'
p2093
S'pass'
p2094
S'pass'
p2095
S'pass'
p2096
tp2097
aa(lp2098
S'voldemort.server.EndToEndTest.testSanity[1]'
p2099
a(S'pass'
p2100
S'pass'
p2101
S'pass'
p2102
S'pass'
p2103
tp2104
aa(lp2105
S'voldemort.server.EndToEndTest.testPutReturnVersion[1]'
p2106
a(S'pass'
p2107
S'pass'
p2108
S'pass'
p2109
S'pass'
p2110
tp2111
aa(lp2112
S'voldemort.server.EndToEndTest.testUnversionedPutReturnVersion[1]'
p2113
a(S'pass'
p2114
S'pass'
p2115
S'pass'
p2116
S'pass'
p2117
tp2118
aa(lp2119
S'voldemort.client.protocol.admin.StreamingClientTest.testStreaming[0]'
p2120
a(S'pass'
p2121
S'pass'
p2122
S'pass'
p2123
S'pass'
p2124
tp2125
aa(lp2126
S'voldemort.client.protocol.admin.StreamingClientTest.testUnInitializedClientPreventNPE[0]'
p2127
a(S'pass'
p2128
S'pass'
p2129
S'pass'
p2130
S'pass'
p2131
tp2132
aa(lp2133
S'voldemort.client.protocol.admin.StreamingClientTest.testStreaming[1]'
p2134
a(S'pass'
p2135
S'pass'
p2136
S'pass'
p2137
S'pass'
p2138
tp2139
aa(lp2140
S'voldemort.client.protocol.admin.StreamingClientTest.testUnInitializedClientPreventNPE[1]'
p2141
a(S'pass'
p2142
S'pass'
p2143
S'pass'
p2144
S'pass'
p2145
tp2146
aa(lp2147
S'voldemort.client.protocol.admin.StreamingClientTest.testStreaming[2]'
p2148
a(S'pass'
p2149
S'pass'
p2150
S'pass'
p2151
S'pass'
p2152
tp2153
aa(lp2154
S'voldemort.client.protocol.admin.StreamingClientTest.testUnInitializedClientPreventNPE[2]'
p2155
a(S'pass'
p2156
S'pass'
p2157
S'pass'
p2158
S'pass'
p2159
tp2160
aa(lp2161
S'voldemort.client.OfflineStateTest.testStateTransitions[0]'
p2162
a(S'pass'
p2163
S'pass'
p2164
S'pass'
p2165
S'pass'
p2166
tp2167
aa(lp2168
S'voldemort.client.OfflineStateTest.testStartingOfflineServeres[0]'
p2169
a(S'pass'
p2170
S'pass'
p2171
S'pass'
p2172
S'pass'
p2173
tp2174
aa(lp2175
S'voldemort.client.OfflineStateTest.testStartingOfflineServeresManually[0]'
p2176
a(S'pass'
p2177
S'pass'
p2178
S'pass'
p2179
S'pass'
p2180
tp2181
aa(lp2182
S'voldemort.client.ClientJmxTest.testSameContextOnJmx'
p2183
a(S'pass'
p2184
S'pass'
p2185
S'pass'
p2186
S'pass'
p2187
tp2188
aa(lp2189
S'voldemort.client.ClientJmxTest.testTwoClientNoContextOnJmx'
p2190
a(S'pass'
p2191
S'pass'
p2192
S'pass'
p2193
S'pass'
p2194
tp2195
aa(lp2196
S'voldemort.client.ClientJmxTest.testTwoClientNullContextOnJmx'
p2197
a(S'pass'
p2198
S'pass'
p2199
S'pass'
p2200
S'pass'
p2201
tp2202
aa(lp2203
S'voldemort.client.ClientJmxTest.testSameContextAndFactory'
p2204
a(S'pass'
p2205
S'pass'
p2206
S'pass'
p2207
S'pass'
p2208
tp2209
aa(lp2210
S'voldemort.client.ClientJmxTest.testDifferentId'
p2211
a(S'pass'
p2212
S'pass'
p2213
S'pass'
p2214
S'pass'
p2215
tp2216
aa(lp2217
S'voldemort.client.ClientJmxTest.testTwoClientContextOnJmx'
p2218
a(S'pass'
p2219
S'pass'
p2220
S'pass'
p2221
S'pass'
p2222
tp2223
aa(lp2224
S'voldemort.client.ClientJmxTest.testHappyCase'
p2225
a(S'pass'
p2226
S'pass'
p2227
S'pass'
p2228
S'pass'
p2229
tp2230
aa(lp2231
S'voldemort.client.ClientJmxTest.testCustomSerializerFactory'
p2232
a(S'pass'
p2233
S'pass'
p2234
S'pass'
p2235
S'pass'
p2236
tp2237
aa(lp2238
S'voldemort.client.ClientJmxTest.testBootstrapServerDown'
p2239
a(S'pass'
p2240
S'pass'
p2241
S'pass'
p2242
S'pass'
p2243
tp2244
aa(lp2245
S'voldemort.client.ClientJmxTest.testBootstrapFailoverSucceeds'
p2246
a(S'pass'
p2247
S'pass'
p2248
S'pass'
p2249
S'pass'
p2250
tp2251
aa(lp2252
S'voldemort.client.ClientJmxTest.testUnknownStoreName'
p2253
a(S'pass'
p2254
S'pass'
p2255
S'pass'
p2256
S'pass'
p2257
tp2258
aa(lp2259
S'voldemort.utils.ClusterUtilsTest.testGetMapOfContiguousPartitionRunLengths'
p2260
a(S'pass'
p2261
S'pass'
p2262
S'pass'
p2263
S'pass'
p2264
tp2265
aa(lp2266
S'voldemort.utils.PropsTest.testContainsKey_ContainsValue_Get_Size'
p2267
a(S'pass'
p2268
S'pass'
p2269
S'pass'
p2270
S'pass'
p2271
tp2272
aa(lp2273
S'voldemort.utils.PropsTest.testClear_Remove_With_Size'
p2274
a(S'skip'
p2275
S'skip'
p2276
S'skip'
p2277
S'skip'
p2278
tp2279
aa(lp2280
S'voldemort.serialization.avro.AvroGenericSerializerTest.testRoundtripAvroWithString'
p2281
a(S'pass'
p2282
S'pass'
p2283
S'pass'
p2284
S'pass'
p2285
tp2286
aa(lp2287
S'voldemort.serialization.avro.AvroGenericSerializerTest.testRoundtripAvroWithEnum'
p2288
a(S'pass'
p2289
S'pass'
p2290
S'pass'
p2291
S'pass'
p2292
tp2293
aa(lp2294
S'voldemort.serialization.avro.AvroGenericSerializerTest.testRoundtripAvroWithGenericRecord'
p2295
a(S'pass'
p2296
S'pass'
p2297
S'pass'
p2298
S'pass'
p2299
tp2300
aa(lp2301
S'voldemort.serialization.avro.AvroGenericSerializerTest.testSimpleStringSchema'
p2302
a(S'pass'
p2303
S'pass'
p2304
S'pass'
p2305
S'pass'
p2306
tp2307
aa(lp2308
S'voldemort.client.rebalance.NonZonedRebalanceTest.testRORWRebalance'
p2309
a(S'pass'
p2310
S'pass'
p2311
S'pass'
p2312
S'pass'
p2313
tp2314
aa(lp2315
S'voldemort.client.rebalance.NonZonedRebalanceTest.testRORWRebalanceWithReplication'
p2316
a(S'pass'
p2317
S'pass'
p2318
S'pass'
p2319
S'pass'
p2320
tp2321
aa(lp2322
S'voldemort.client.rebalance.NonZonedRebalanceTest.testRORebalanceWithReplication'
p2323
a(S'pass'
p2324
S'pass'
p2325
S'pass'
p2326
S'pass'
p2327
tp2328
aa(lp2329
S'voldemort.client.rebalance.NonZonedRebalanceTest.testRWRebalanceWithReplication'
p2330
a(S'pass'
p2331
S'pass'
p2332
S'pass'
p2333
S'pass'
p2334
tp2335
aa(lp2336
S'voldemort.client.rebalance.NonZonedRebalanceTest.testRebalanceCleanPrimary'
p2337
a(S'pass'
p2338
S'pass'
p2339
S'pass'
p2340
S'pass'
p2341
tp2342
aa(lp2343
S'voldemort.client.rebalance.NonZonedRebalanceTest.testRebalanceCleanSecondary'
p2344
a(S'pass'
p2345
S'pass'
p2346
S'pass'
p2347
S'pass'
p2348
tp2349
aa(lp2350
S'voldemort.client.rebalance.NonZonedRebalanceTest.testRWRebalanceFourNodes'
p2351
a(S'pass'
p2352
S'pass'
p2353
S'pass'
p2354
S'pass'
p2355
tp2356
aa(lp2357
S'voldemort.client.rebalance.NonZonedRebalanceTest.testRWRebalanceSerial'
p2358
a(S'pass'
p2359
S'pass'
p2360
S'pass'
p2361
S'pass'
p2362
tp2363
aa(lp2364
S'voldemort.client.rebalance.NonZonedRebalanceTest.testProxyGetDuringRebalancing'
p2365
a(S'pass'
p2366
S'pass'
p2367
S'pass'
p2368
S'pass'
p2369
tp2370
aa(lp2371
S'voldemort.client.rebalance.NonZonedRebalanceTest.testProxyPutDuringRebalancing'
p2372
a(S'pass'
p2373
S'pass'
p2374
S'pass'
p2375
S'pass'
p2376
tp2377
aa(lp2378
S'voldemort.client.rebalance.NonZonedRebalanceTest.testServerSideRouting'
p2379
a(S'pass'
p2380
S'pass'
p2381
S'pass'
p2382
S'pass'
p2383
tp2384
aa(lp2385
S'voldemort.client.ClientRegistryTest.testTwoClients'
p2386
a(S'pass'
p2387
S'pass'
p2388
S'pass'
p2389
S'pass'
p2390
tp2391
aa(lp2392
S'voldemort.client.ClientRegistryTest.testTwoStores'
p2393
a(S'pass'
p2394
S'pass'
p2395
S'pass'
p2396
S'pass'
p2397
tp2398
aa(lp2399
S'voldemort.client.ClientRegistryTest.testTwoFactories'
p2400
a(S'pass'
p2401
S'pass'
p2402
S'pass'
p2403
S'pass'
p2404
tp2405
aa(lp2406
S'voldemort.client.ClientRegistryTest.testOneServerFailure'
p2407
a(S'pass'
p2408
S'pass'
p2409
S'pass'
p2410
S'pass'
p2411
tp2412
aa(lp2413
S'voldemort.client.ClientRegistryTest.testRepeatRegistrationSameFactoryUnCached'
p2414
a(S'pass'
p2415
S'pass'
p2416
S'pass'
p2417
S'pass'
p2418
tp2419
aa(lp2420
S'voldemort.client.ClientRegistryTest.testRepeatRegistrationSameFactoryCached'
p2421
a(S'pass'
p2422
S'pass'
p2423
S'pass'
p2424
S'pass'
p2425
tp2426
aa(lp2427
S'voldemort.client.ClientRegistryTest.testRepeatRegistrationDifferentFactories'
p2428
a(S'pass'
p2429
S'pass'
p2430
S'pass'
p2431
S'pass'
p2432
tp2433
aa(lp2434
S'voldemort.client.ClientRegistryTest.testHappyPath'
p2435
a(S'pass'
p2436
S'pass'
p2437
S'pass'
p2438
S'pass'
p2439
tp2440
aa(lp2441
S'voldemort.server.socket.NioSelectorManagerTest.testSelectorHeartBeat[0]'
p2442
a(S'pass'
p2443
S'pass'
p2444
S'pass'
p2445
S'pass'
p2446
tp2447
aa(lp2448
S'voldemort.server.socket.NioSelectorManagerTest.testSelectorHeartBeat[1]'
p2449
a(S'pass'
p2450
S'pass'
p2451
S'pass'
p2452
S'pass'
p2453
tp2454
aa(lp2455
S'voldemort.server.socket.SocketPoolTest.testTwoCheckoutsGetTheSameSocket[0]'
p2456
a(S'pass'
p2457
S'pass'
p2458
S'pass'
p2459
S'pass'
p2460
tp2461
aa(lp2462
S'voldemort.server.socket.SocketPoolTest.testClosingDeactivates[0]'
p2463
a(S'pass'
p2464
S'pass'
p2465
S'pass'
p2466
S'pass'
p2467
tp2468
aa(lp2469
S'voldemort.server.socket.SocketPoolTest.testVariousProtocols[0]'
p2470
a(S'pass'
p2471
S'pass'
p2472
S'pass'
p2473
S'pass'
p2474
tp2475
aa(lp2476
S'voldemort.server.socket.SocketPoolTest.testCloseWithInFlightSockets[0]'
p2477
a(S'pass'
p2478
S'pass'
p2479
S'pass'
p2480
S'pass'
p2481
tp2482
aa(lp2483
S'voldemort.server.socket.SocketPoolTest.testSocketClosedWhenCheckedInAfterPoolKeyClosed[0]'
p2484
a(S'pass'
p2485
S'pass'
p2486
S'pass'
p2487
S'pass'
p2488
tp2489
aa(lp2490
S'voldemort.server.socket.SocketPoolTest.testTwoCheckoutsGetTheSameSocket[1]'
p2491
a(S'pass'
p2492
S'pass'
p2493
S'pass'
p2494
S'pass'
p2495
tp2496
aa(lp2497
S'voldemort.server.socket.SocketPoolTest.testClosingDeactivates[1]'
p2498
a(S'pass'
p2499
S'pass'
p2500
S'pass'
p2501
S'pass'
p2502
tp2503
aa(lp2504
S'voldemort.server.socket.SocketPoolTest.testVariousProtocols[1]'
p2505
a(S'pass'
p2506
S'pass'
p2507
S'pass'
p2508
S'pass'
p2509
tp2510
aa(lp2511
S'voldemort.server.socket.SocketPoolTest.testCloseWithInFlightSockets[1]'
p2512
a(S'pass'
p2513
S'pass'
p2514
S'pass'
p2515
S'pass'
p2516
tp2517
aa(lp2518
S'voldemort.server.socket.SocketPoolTest.testSocketClosedWhenCheckedInAfterPoolKeyClosed[1]'
p2519
a(S'pass'
p2520
S'pass'
p2521
S'pass'
p2522
S'pass'
p2523
tp2524
aa(lp2525
S'voldemort.utils.RebalanceUtilsTest.testUpdateCluster'
p2526
a(S'pass'
p2527
S'pass'
p2528
S'pass'
p2529
S'pass'
p2530
tp2531
aa(lp2532
S'voldemort.utils.RebalanceUtilsTest.testClusterTransformationAndVerification'
p2533
a(S'pass'
p2534
S'pass'
p2535
S'pass'
p2536
S'pass'
p2537
tp2538
aa(lp2539
S'voldemort.utils.RebalanceUtilsTest.testClusterTransformationAndVerificationExceptions'
p2540
a(S'pass'
p2541
S'pass'
p2542
S'pass'
p2543
S'pass'
p2544
tp2545
aa(lp2546
S'voldemort.utils.RebalanceUtilsTest.testGetNodeIds'
p2547
a(S'pass'
p2548
S'pass'
p2549
S'pass'
p2550
S'pass'
p2551
tp2552
aa(lp2553
S'voldemort.utils.RebalanceUtilsTest.testGetClusterWithNewNodes'
p2554
a(S'pass'
p2555
S'pass'
p2556
S'pass'
p2557
S'pass'
p2558
tp2559
aa(lp2560
S'voldemort.client.SocketStoreClientFactoryMbeanTest.testMultipleDistinctClientsOnSingleFactory[0]'
p2561
a(S'pass'
p2562
S'pass'
p2563
S'pass'
p2564
S'pass'
p2565
tp2566
aa(lp2567
S'voldemort.client.SocketStoreClientFactoryMbeanTest.testMultipleIndistinctClientsOnSingleFactory[0]'
p2568
a(S'pass'
p2569
S'pass'
p2570
S'pass'
p2571
S'pass'
p2572
tp2573
aa(lp2574
S'voldemort.client.SocketStoreClientFactoryMbeanTest.testMultipleDistinctClientsOnMultipleFactories[0]'
p2575
a(S'pass'
p2576
S'pass'
p2577
S'pass'
p2578
S'pass'
p2579
tp2580
aa(lp2581
S'voldemort.client.SocketStoreClientFactoryMbeanTest.testMultipleInDistinctClientsOnMultipleFactories[0]'
p2582
a(S'pass'
p2583
S'pass'
p2584
S'pass'
p2585
S'pass'
p2586
tp2587
aa(lp2588
S'voldemort.client.SocketStoreClientFactoryMbeanTest.testTwoFactories[0]'
p2589
a(S'pass'
p2590
S'pass'
p2591
S'pass'
p2592
S'pass'
p2593
tp2594
aa(lp2595
S'voldemort.client.SocketStoreClientFactoryMbeanTest.testStoreClientCaching[0]'
p2596
a(S'pass'
p2597
S'pass'
p2598
S'pass'
p2599
S'pass'
p2600
tp2601
aa(lp2602
S'voldemort.client.SocketStoreClientFactoryMbeanTest.testBootstrapServerDown[0]'
p2603
a(S'pass'
p2604
S'pass'
p2605
S'pass'
p2606
S'pass'
p2607
tp2608
aa(lp2609
S'voldemort.client.SocketStoreClientFactoryMbeanTest.testUnknownStoreName[0]'
p2610
a(S'pass'
p2611
S'pass'
p2612
S'pass'
p2613
S'pass'
p2614
tp2615
aa(lp2616
S'voldemort.client.SocketStoreClientFactoryMbeanTest.testBootstrapFailoverSucceeds[0]'
p2617
a(S'pass'
p2618
S'pass'
p2619
S'pass'
p2620
S'pass'
p2621
tp2622
aa(lp2623
S'voldemort.client.SocketStoreClientFactoryMbeanTest.testInvalidZoneID[0]'
p2624
a(S'pass'
p2625
S'pass'
p2626
S'pass'
p2627
S'pass'
p2628
tp2629
aa(lp2630
S'voldemort.client.SocketStoreClientFactoryMbeanTest.testHappyCase[0]'
p2631
a(S'pass'
p2632
S'pass'
p2633
S'pass'
p2634
S'pass'
p2635
tp2636
aa(lp2637
S'voldemort.client.SocketStoreClientFactoryMbeanTest.testCustomSerializerFactory[0]'
p2638
a(S'pass'
p2639
S'pass'
p2640
S'pass'
p2641
S'pass'
p2642
tp2643
aa(lp2644
S'voldemort.store.bdb.BdbSplitStorageEngineTest.testUnsharedCache[0]'
p2645
a(S'pass'
p2646
S'pass'
p2647
S'pass'
p2648
S'pass'
p2649
tp2650
aa(lp2651
S'voldemort.store.bdb.BdbSplitStorageEngineTest.testSharedCache[0]'
p2652
a(S'pass'
p2653
S'pass'
p2654
S'pass'
p2655
S'pass'
p2656
tp2657
aa(lp2658
S'voldemort.store.bdb.BdbSplitStorageEngineTest.testNoMultipleEnvironment[0]'
p2659
a(S'pass'
p2660
S'pass'
p2661
S'pass'
p2662
S'pass'
p2663
tp2664
aa(lp2665
S'voldemort.store.bdb.BdbSplitStorageEngineTest.testMultipleEnvironment[0]'
p2666
a(S'pass'
p2667
S'pass'
p2668
S'pass'
p2669
S'pass'
p2670
tp2671
aa(lp2672
S'voldemort.store.bdb.BdbSplitStorageEngineTest.testUnsharedCache[1]'
p2673
a(S'pass'
p2674
S'pass'
p2675
S'pass'
p2676
S'pass'
p2677
tp2678
aa(lp2679
S'voldemort.store.bdb.BdbSplitStorageEngineTest.testSharedCache[1]'
p2680
a(S'pass'
p2681
S'pass'
p2682
S'pass'
p2683
S'pass'
p2684
tp2685
aa(lp2686
S'voldemort.store.bdb.BdbSplitStorageEngineTest.testNoMultipleEnvironment[1]'
p2687
a(S'pass'
p2688
S'pass'
p2689
S'pass'
p2690
S'pass'
p2691
tp2692
aa(lp2693
S'voldemort.store.bdb.BdbSplitStorageEngineTest.testMultipleEnvironment[1]'
p2694
a(S'pass'
p2695
S'pass'
p2696
S'pass'
p2697
S'pass'
p2698
tp2699
aa(lp2700
S'voldemort.server.quota.ExceededQuotaSlopTest.testAsyncWritesSloppedOnQuotaExceeed'
p2701
a(S'fail'
p2702
S'fail'
p2703
S'pass'
p2704
S'fail'
p2705
tp2706
aa(lp2707
S'voldemort.protocol.vold.VoldemortNativeV2BackwardCompatTest.testBackWardCompatibility'
p2708
a(S'pass'
p2709
S'pass'
p2710
S'pass'
p2711
S'pass'
p2712
tp2713
aa(lp2714
S'voldemort.store.readonly.StoreVersionManagerTest.testDisableStoreVersionOnReadOnlyStorage'
p2715
a(S'pass'
p2716
S'pass'
p2717
S'pass'
p2718
S'pass'
p2719
tp2720
aa(lp2721
S'voldemort.store.readonly.StoreVersionManagerTest.testDisableStoreVersion'
p2722
a(S'pass'
p2723
S'pass'
p2724
S'pass'
p2725
S'pass'
p2726
tp2727
aa(lp2728
S'voldemort.tools.ZoneCLipperTest.testDropZoneIdWorks[0]'
p2729
a(S'pass'
p2730
S'pass'
p2731
S'pass'
p2732
S'pass'
p2733
tp2734
aa(lp2735
S'voldemort.tools.ZoneCLipperTest.testDropZoneIdWorks[1]'
p2736
a(S'pass'
p2737
S'pass'
p2738
S'pass'
p2739
S'pass'
p2740
tp2741
aa(lp2742
S'voldemort.tools.ZoneCLipperTest.testDropZoneIdWorks[2]'
p2743
a(S'pass'
p2744
S'pass'
p2745
S'pass'
p2746
S'pass'
p2747
tp2748
aa(lp2749
S'voldemort.tools.ZoneCLipperTest.testDropZoneIdWorks[3]'
p2750
a(S'pass'
p2751
S'pass'
p2752
S'pass'
p2753
S'pass'
p2754
tp2755
aa(lp2756
S'voldemort.tools.ZoneCLipperTest.testDropZoneIdWorks[4]'
p2757
a(S'pass'
p2758
S'pass'
p2759
S'pass'
p2760
S'pass'
p2761
tp2762
aa(lp2763
S'voldemort.tools.ZoneCLipperTest.testDropZoneIdWorks[5]'
p2764
a(S'pass'
p2765
S'pass'
p2766
S'pass'
p2767
S'pass'
p2768
tp2769
aa(lp2770
S'voldemort.server.socket.NioStatsJmxTest.testActiveConnectionCount'
p2771
a(S'pass'
p2772
S'pass'
p2773
S'pass'
p2774
S'pass'
p2775
tp2776
aa(lp2777
S'voldemort.client.AdminFetchTest.testFetchPartitionPrimaryEntries[0]'
p2778
a(S'pass'
p2779
S'pass'
p2780
S'pass'
p2781
S'pass'
p2782
tp2783
aa(lp2784
S'voldemort.client.AdminFetchTest.testFetchPartitionSecondaryEntries[0]'
p2785
a(S'pass'
p2786
S'pass'
p2787
S'pass'
p2788
S'pass'
p2789
tp2790
aa(lp2791
S'voldemort.client.AdminFetchTest.testFetchPartitionPrimaryTwoEntries[0]'
p2792
a(S'pass'
p2793
S'pass'
p2794
S'pass'
p2795
S'pass'
p2796
tp2797
aa(lp2798
S'voldemort.client.AdminFetchTest.testFetchPartitionPrimaryKeys[0]'
p2799
a(S'pass'
p2800
S'pass'
p2801
S'pass'
p2802
S'pass'
p2803
tp2804
aa(lp2805
S'voldemort.client.AdminFetchTest.testFetchPartitionSecondaryKeys[0]'
p2806
a(S'pass'
p2807
S'pass'
p2808
S'pass'
p2809
S'pass'
p2810
tp2811
aa(lp2812
S'voldemort.client.AdminFetchTest.testFetchPartitionPrimaryTwoKeys[0]'
p2813
a(S'pass'
p2814
S'pass'
p2815
S'pass'
p2816
S'pass'
p2817
tp2818
aa(lp2819
S'voldemort.client.AdminFetchTest.testFetchPartitionPrimaryEntries[1]'
p2820
a(S'pass'
p2821
S'pass'
p2822
S'pass'
p2823
S'pass'
p2824
tp2825
aa(lp2826
S'voldemort.client.AdminFetchTest.testFetchPartitionSecondaryEntries[1]'
p2827
a(S'pass'
p2828
S'pass'
p2829
S'pass'
p2830
S'pass'
p2831
tp2832
aa(lp2833
S'voldemort.client.AdminFetchTest.testFetchPartitionPrimaryTwoEntries[1]'
p2834
a(S'pass'
p2835
S'pass'
p2836
S'pass'
p2837
S'pass'
p2838
tp2839
aa(lp2840
S'voldemort.client.AdminFetchTest.testFetchPartitionPrimaryKeys[1]'
p2841
a(S'pass'
p2842
S'pass'
p2843
S'pass'
p2844
S'pass'
p2845
tp2846
aa(lp2847
S'voldemort.client.AdminFetchTest.testFetchPartitionSecondaryKeys[1]'
p2848
a(S'pass'
p2849
S'pass'
p2850
S'pass'
p2851
S'pass'
p2852
tp2853
aa(lp2854
S'voldemort.client.AdminFetchTest.testFetchPartitionPrimaryTwoKeys[1]'
p2855
a(S'pass'
p2856
S'pass'
p2857
S'pass'
p2858
S'pass'
p2859
tp2860
aa(lp2861
S'voldemort.client.AdminFetchTest.testFetchPartitionPrimaryEntries[2]'
p2862
a(S'pass'
p2863
S'pass'
p2864
S'pass'
p2865
S'pass'
p2866
tp2867
aa(lp2868
S'voldemort.client.AdminFetchTest.testFetchPartitionSecondaryEntries[2]'
p2869
a(S'pass'
p2870
S'pass'
p2871
S'pass'
p2872
S'pass'
p2873
tp2874
aa(lp2875
S'voldemort.client.AdminFetchTest.testFetchPartitionPrimaryTwoEntries[2]'
p2876
a(S'pass'
p2877
S'pass'
p2878
S'pass'
p2879
S'pass'
p2880
tp2881
aa(lp2882
S'voldemort.client.AdminFetchTest.testFetchPartitionPrimaryKeys[2]'
p2883
a(S'pass'
p2884
S'pass'
p2885
S'pass'
p2886
S'pass'
p2887
tp2888
aa(lp2889
S'voldemort.client.AdminFetchTest.testFetchPartitionSecondaryKeys[2]'
p2890
a(S'pass'
p2891
S'pass'
p2892
S'pass'
p2893
S'pass'
p2894
tp2895
aa(lp2896
S'voldemort.client.AdminFetchTest.testFetchPartitionPrimaryTwoKeys[2]'
p2897
a(S'pass'
p2898
S'pass'
p2899
S'pass'
p2900
S'pass'
p2901
tp2902
aa(lp2903
S'voldemort.client.AdminFetchTest.testFetchPartitionPrimaryEntries[3]'
p2904
a(S'pass'
p2905
S'pass'
p2906
S'pass'
p2907
S'pass'
p2908
tp2909
aa(lp2910
S'voldemort.client.AdminFetchTest.testFetchPartitionSecondaryEntries[3]'
p2911
a(S'pass'
p2912
S'pass'
p2913
S'pass'
p2914
S'pass'
p2915
tp2916
aa(lp2917
S'voldemort.client.AdminFetchTest.testFetchPartitionPrimaryTwoEntries[3]'
p2918
a(S'pass'
p2919
S'pass'
p2920
S'pass'
p2921
S'pass'
p2922
tp2923
aa(lp2924
S'voldemort.client.AdminFetchTest.testFetchPartitionPrimaryKeys[3]'
p2925
a(S'pass'
p2926
S'pass'
p2927
S'pass'
p2928
S'pass'
p2929
tp2930
aa(lp2931
S'voldemort.client.AdminFetchTest.testFetchPartitionSecondaryKeys[3]'
p2932
a(S'pass'
p2933
S'pass'
p2934
S'pass'
p2935
S'pass'
p2936
tp2937
aa(lp2938
S'voldemort.client.AdminFetchTest.testFetchPartitionPrimaryTwoKeys[3]'
p2939
a(S'pass'
p2940
S'pass'
p2941
S'pass'
p2942
S'pass'
p2943
tp2944
aa(lp2945
S'voldemort.versioning.VectorClockTest.testSerializationWraps'
p2946
a(S'pass'
p2947
S'pass'
p2948
S'pass'
p2949
S'pass'
p2950
tp2951
aa(lp2952
S'voldemort.versioning.VectorClockTest.testIncrementOrderDoesntMatter'
p2953
a(S'pass'
p2954
S'pass'
p2955
S'pass'
p2956
S'pass'
p2957
tp2958
aa(lp2959
S'voldemort.versioning.VectorClockTest.testEqualsAndHashcode'
p2960
a(S'pass'
p2961
S'pass'
p2962
S'pass'
p2963
S'pass'
p2964
tp2965
aa(lp2966
S'voldemort.versioning.VectorClockTest.testComparisons'
p2967
a(S'pass'
p2968
S'pass'
p2969
S'pass'
p2970
S'pass'
p2971
tp2972
aa(lp2973
S'voldemort.versioning.VectorClockTest.testMerge'
p2974
a(S'pass'
p2975
S'pass'
p2976
S'pass'
p2977
S'pass'
p2978
tp2979
aa(lp2980
S'voldemort.versioning.VectorClockTest.testMergeWithLargeVersion'
p2981
a(S'pass'
p2982
S'pass'
p2983
S'pass'
p2984
S'pass'
p2985
tp2986
aa(lp2987
S'voldemort.versioning.VectorClockTest.testSerialization'
p2988
a(S'pass'
p2989
S'pass'
p2990
S'pass'
p2991
S'pass'
p2992
tp2993
aa(lp2994
S'voldemort.versioning.VectorClockTest.testDeserializationBackwardCompatibility'
p2995
a(S'pass'
p2996
S'pass'
p2997
S'pass'
p2998
S'pass'
p2999
tp3000
aa(lp3001
S'voldemort.versioning.VectorClockTest.testIncrementAndSerialize'
p3002
a(S'pass'
p3003
S'pass'
p3004
S'pass'
p3005
S'pass'
p3006
tp3007
aa(lp3008
S'voldemort.versioning.VectorClockTest.testNodeClockEntryDeprecate'
p3009
a(S'pass'
p3010
S'pass'
p3011
S'pass'
p3012
S'pass'
p3013
tp3014
aa(lp3015
S'voldemort.versioning.VectorClockTest.testVersion0NotAcceptable'
p3016
a(S'pass'
p3017
S'pass'
p3018
S'pass'
p3019
S'pass'
p3020
tp3021
aa(lp3022
S'voldemort.versioning.VectorClockTest.testNodeLess0NotAcceptable'
p3023
a(S'pass'
p3024
S'pass'
p3025
S'pass'
p3026
S'pass'
p3027
tp3028
aa(lp3029
S'voldemort.versioning.VectorClockTest.testSerializationBackwardCompatibility'
p3030
a(S'pass'
p3031
S'pass'
p3032
S'pass'
p3033
S'pass'
p3034
tp3035
aa(lp3036
S'voldemort.store.invalidmetadata.ServerSideRoutingTest.testServerSideRouting[0]'
p3037
a(S'pass'
p3038
S'pass'
p3039
S'pass'
p3040
S'pass'
p3041
tp3042
aa(lp3043
S'voldemort.store.invalidmetadata.ServerSideRoutingTest.testServerSideRouting[1]'
p3044
a(S'pass'
p3045
S'pass'
p3046
S'pass'
p3047
S'pass'
p3048
tp3049
aa(lp3050
S'voldemort.store.invalidmetadata.ServerSideRoutingTest.testServerSideRouting[2]'
p3051
a(S'pass'
p3052
S'pass'
p3053
S'pass'
p3054
S'pass'
p3055
tp3056
aa(lp3057
S'voldemort.store.invalidmetadata.ServerSideRoutingTest.testServerSideRouting[3]'
p3058
a(S'pass'
p3059
S'pass'
p3060
S'pass'
p3061
S'pass'
p3062
tp3063
aa(lp3064
S'voldemort.tools.admin.StoreOperationsTest.testStoreAddAndDelete'
p3065
a(S'pass'
p3066
S'pass'
p3067
S'pass'
p3068
S'pass'
p3069
tp3070
aa(lp3071
S'voldemort.store.routed.RoutedStoreTest.testBasicOperationsSingleThreaded'
p3072
a(S'pass'
p3073
S'pass'
p3074
S'pass'
p3075
S'pass'
p3076
tp3077
aa(lp3078
S'voldemort.store.routed.RoutedStoreTest.testBasicOperationsZZZSingleThreaded'
p3079
a(S'pass'
p3080
S'pass'
p3081
S'pass'
p3082
S'pass'
p3083
tp3084
aa(lp3085
S'voldemort.store.routed.RoutedStoreTest.testBasicOperationsMultiThreaded'
p3086
a(S'pass'
p3087
S'pass'
p3088
S'pass'
p3089
S'pass'
p3090
tp3091
aa(lp3092
S'voldemort.store.routed.RoutedStoreTest.testBasicOperationsZZZMultiThreaded'
p3093
a(S'pass'
p3094
S'pass'
p3095
S'pass'
p3096
S'pass'
p3097
tp3098
aa(lp3099
S'voldemort.store.routed.RoutedStoreTest.testBasicOperationsMultiThreadedWithFailures'
p3100
a(S'pass'
p3101
S'pass'
p3102
S'pass'
p3103
S'pass'
p3104
tp3105
aa(lp3106
S'voldemort.store.routed.RoutedStoreTest.testBasicOperationsZZZMultiThreadedWithFailures'
p3107
a(S'pass'
p3108
S'pass'
p3109
S'pass'
p3110
S'pass'
p3111
tp3112
aa(lp3113
S'voldemort.store.routed.RoutedStoreTest.testBasicOperationsZZZMultiThreadedWithDelays'
p3114
a(S'pass'
p3115
S'pass'
p3116
S'pass'
p3117
S'pass'
p3118
tp3119
aa(lp3120
S'voldemort.store.routed.RoutedStoreTest.testBasicOperationFailureMultiThreaded'
p3121
a(S'pass'
p3122
S'pass'
p3123
S'pass'
p3124
S'pass'
p3125
tp3126
aa(lp3127
S'voldemort.store.routed.RoutedStoreTest.testBasicOperationFailureZZZMultiThreaded'
p3128
a(S'pass'
p3129
S'pass'
p3130
S'pass'
p3131
S'pass'
p3132
tp3133
aa(lp3134
S'voldemort.store.routed.RoutedStoreTest.testBasicOperationsFailureZZZMultiThreadedWithDelays'
p3135
a(S'pass'
p3136
S'pass'
p3137
S'pass'
p3138
S'pass'
p3139
tp3140
aa(lp3141
S'voldemort.store.routed.RoutedStoreTest.testPutIncrementsVersion'
p3142
a(S'pass'
p3143
S'pass'
p3144
S'pass'
p3145
S'pass'
p3146
tp3147
aa(lp3148
S'voldemort.store.routed.RoutedStoreTest.testPutIncrementsVersionZZZ'
p3149
a(S'pass'
p3150
S'pass'
p3151
S'pass'
p3152
S'pass'
p3153
tp3154
aa(lp3155
S'voldemort.store.routed.RoutedStoreTest.testObsoleteMasterFails'
p3156
a(S'pass'
p3157
S'pass'
p3158
S'pass'
p3159
S'pass'
p3160
tp3161
aa(lp3162
S'voldemort.store.routed.RoutedStoreTest.testOnlyNodeFailuresDisableNode'
p3163
a(S'pass'
p3164
S'pass'
p3165
S'pass'
p3166
S'pass'
p3167
tp3168
aa(lp3169
S'voldemort.store.routed.RoutedStoreTest.testGetVersions2'
p3170
a(S'pass'
p3171
S'pass'
p3172
S'pass'
p3173
S'pass'
p3174
tp3175
aa(lp3176
S'voldemort.store.routed.RoutedStoreTest.testGetVersions2ZZZ'
p3177
a(S'pass'
p3178
S'pass'
p3179
S'pass'
p3180
S'pass'
p3181
tp3182
aa(lp3183
S'voldemort.store.routed.RoutedStoreTest.testGetAllWithNodeDown'
p3184
a(S'pass'
p3185
S'pass'
p3186
S'pass'
p3187
S'pass'
p3188
tp3189
aa(lp3190
S'voldemort.store.routed.RoutedStoreTest.testGetAllWithNodeDownZZZ'
p3191
a(S'pass'
p3192
S'pass'
p3193
S'pass'
p3194
S'pass'
p3195
tp3196
aa(lp3197
S'voldemort.store.routed.RoutedStoreTest.testPartialGetAll'
p3198
a(S'pass'
p3199
S'pass'
p3200
S'pass'
p3201
S'pass'
p3202
tp3203
aa(lp3204
S'voldemort.store.routed.RoutedStoreTest.testPartialGetAllZZZ'
p3205
a(S'pass'
p3206
S'pass'
p3207
S'pass'
p3208
S'pass'
p3209
tp3210
aa(lp3211
S'voldemort.store.routed.RoutedStoreTest.testGetAllWithFailingStore'
p3212
a(S'pass'
p3213
S'pass'
p3214
S'pass'
p3215
S'pass'
p3216
tp3217
aa(lp3218
S'voldemort.store.routed.RoutedStoreTest.testGetAllWithFailingStoreZZZ'
p3219
a(S'pass'
p3220
S'pass'
p3221
S'pass'
p3222
S'pass'
p3223
tp3224
aa(lp3225
S'voldemort.store.routed.RoutedStoreTest.testGetAllWithMorePreferredReadsThanNodes'
p3226
a(S'pass'
p3227
S'pass'
p3228
S'pass'
p3229
S'pass'
p3230
tp3231
aa(lp3232
S'voldemort.store.routed.RoutedStoreTest.testReadRepairWithFailures'
p3233
a(S'pass'
p3234
S'pass'
p3235
S'pass'
p3236
S'pass'
p3237
tp3238
aa(lp3239
S'voldemort.store.routed.RoutedStoreTest.testReadRepairWithFailuresZZZ'
p3240
a(S'pass'
p3241
S'pass'
p3242
S'pass'
p3243
S'pass'
p3244
tp3245
aa(lp3246
S'voldemort.store.routed.RoutedStoreTest.testPutWithOneNodeDownAndOneNodeSlow'
p3247
a(S'pass'
p3248
S'pass'
p3249
S'pass'
p3250
S'pass'
p3251
tp3252
aa(lp3253
S'voldemort.store.routed.RoutedStoreTest.testPutWithOneNodeDownAndOneNodeSlowZZZ'
p3254
a(S'pass'
p3255
S'pass'
p3256
S'pass'
p3257
S'pass'
p3258
tp3259
aa(lp3260
S'voldemort.store.routed.RoutedStoreTest.testPutTimeout'
p3261
a(S'pass'
p3262
S'pass'
p3263
S'pass'
p3264
S'pass'
p3265
tp3266
aa(lp3267
S'voldemort.store.routed.RoutedStoreTest.testGetTimeout'
p3268
a(S'pass'
p3269
S'pass'
p3270
S'pass'
p3271
S'pass'
p3272
tp3273
aa(lp3274
S'voldemort.store.routed.RoutedStoreTest.testGetAndPutTimeoutZZZ'
p3275
a(S'pass'
p3276
S'pass'
p3277
S'pass'
p3278
S'pass'
p3279
tp3280
aa(lp3281
S'voldemort.store.routed.RoutedStoreTest.testOperationSpecificTimeouts'
p3282
a(S'pass'
p3283
S'pass'
p3284
S'pass'
p3285
S'pass'
p3286
tp3287
aa(lp3288
S'voldemort.store.routed.RoutedStoreTest.testNoReadRepair'
p3289
a(S'pass'
p3290
S'pass'
p3291
S'pass'
p3292
S'pass'
p3293
tp3294
aa(lp3295
S'voldemort.store.routed.RoutedStoreTest.testTardyResponsesNotIncludedInResult'
p3296
a(S'pass'
p3297
S'pass'
p3298
S'pass'
p3299
S'pass'
p3300
tp3301
aa(lp3302
S'voldemort.store.routed.RoutedStoreTest.testSlowStoreDowngradesFromPreferredToRequired'
p3303
a(S'pass'
p3304
S'pass'
p3305
S'pass'
p3306
S'pass'
p3307
tp3308
aa(lp3309
S'voldemort.store.routed.RoutedStoreTest.testPutDeleteZoneRouting'
p3310
a(S'pass'
p3311
S'pass'
p3312
S'pass'
p3313
S'pass'
p3314
tp3315
aa(lp3316
S'voldemort.store.routed.RoutedStoreTest.testZoneRouting'
p3317
a(S'pass'
p3318
S'pass'
p3319
S'pass'
p3320
S'pass'
p3321
tp3322
aa(lp3323
S'voldemort.store.routed.RoutedStoreTest.testEmptyByteArray'
p3324
a(S'pass'
p3325
S'pass'
p3326
S'pass'
p3327
S'pass'
p3328
tp3329
aa(lp3330
S'voldemort.store.routed.RoutedStoreTest.testNullKeys'
p3331
a(S'pass'
p3332
S'pass'
p3333
S'pass'
p3334
S'pass'
p3335
tp3336
aa(lp3337
S'voldemort.store.routed.RoutedStoreTest.testPutNullValue'
p3338
a(S'pass'
p3339
S'pass'
p3340
S'pass'
p3341
S'pass'
p3342
tp3343
aa(lp3344
S'voldemort.store.routed.RoutedStoreTest.testGetAndDeleteNonExistentKey'
p3345
a(S'pass'
p3346
S'pass'
p3347
S'pass'
p3348
S'pass'
p3349
tp3350
aa(lp3351
S'voldemort.store.routed.RoutedStoreTest.testFetchedEqualsPut'
p3352
a(S'pass'
p3353
S'pass'
p3354
S'pass'
p3355
S'pass'
p3356
tp3357
aa(lp3358
S'voldemort.store.routed.RoutedStoreTest.testVersionedPut'
p3359
a(S'pass'
p3360
S'pass'
p3361
S'pass'
p3362
S'pass'
p3363
tp3364
aa(lp3365
S'voldemort.store.routed.RoutedStoreTest.testDelete'
p3366
a(S'pass'
p3367
S'pass'
p3368
S'pass'
p3369
S'pass'
p3370
tp3371
aa(lp3372
S'voldemort.store.routed.RoutedStoreTest.testGetVersions'
p3373
a(S'pass'
p3374
S'pass'
p3375
S'pass'
p3376
S'pass'
p3377
tp3378
aa(lp3379
S'voldemort.store.routed.RoutedStoreTest.testGetAll'
p3380
a(S'pass'
p3381
S'pass'
p3382
S'pass'
p3383
S'pass'
p3384
tp3385
aa(lp3386
S'voldemort.store.routed.RoutedStoreTest.testGetAllWithAbsentKeys'
p3387
a(S'pass'
p3388
S'pass'
p3389
S'pass'
p3390
S'pass'
p3391
tp3392
aa(lp3393
S'voldemort.store.routed.RoutedStoreTest.testCloseIsIdempotent'
p3394
a(S'pass'
p3395
S'pass'
p3396
S'pass'
p3397
S'pass'
p3398
tp3399
aa(lp3400
S'voldemort.store.slop.strategy.ConsistentHandoffStrategyTest.testRouteHint'
p3401
a(S'pass'
p3402
S'pass'
p3403
S'pass'
p3404
S'pass'
p3405
tp3406
aa(lp3407
S'voldemort.utils.ReflectUtilsTest.testCallMethod'
p3408
a(S'pass'
p3409
S'pass'
p3410
S'pass'
p3411
S'pass'
p3412
tp3413
aa(lp3414
S'voldemort.utils.ReflectUtilsTest.testCallConstructor'
p3415
a(S'pass'
p3416
S'pass'
p3417
S'pass'
p3418
S'pass'
p3419
tp3420
aa(lp3421
S'voldemort.utils.ReflectUtilsTest.testLoadClass'
p3422
a(S'pass'
p3423
S'pass'
p3424
S'pass'
p3425
S'pass'
p3426
tp3427
aa(lp3428
S'voldemort.utils.ReflectUtilsTest.testConstruct'
p3429
a(S'pass'
p3430
S'pass'
p3431
S'pass'
p3432
S'pass'
p3433
tp3434
aa(lp3435
S'voldemort.serialization.protobuf.ProtoBufSerializerTest.testToObject'
p3436
a(S'pass'
p3437
S'pass'
p3438
S'pass'
p3439
S'pass'
p3440
tp3441
aa(lp3442
S'voldemort.serialization.protobuf.ProtoBufSerializerTest.testValidSchemaInfo'
p3443
a(S'pass'
p3444
S'pass'
p3445
S'pass'
p3446
S'pass'
p3447
tp3448
aa(lp3449
S'voldemort.serialization.protobuf.ProtoBufSerializerTest.testToBytes'
p3450
a(S'pass'
p3451
S'pass'
p3452
S'pass'
p3453
S'pass'
p3454
tp3455
aa(lp3456
S'voldemort.serialization.protobuf.ProtoBufSerializerTest.testNonExistentClass'
p3457
a(S'pass'
p3458
S'pass'
p3459
S'pass'
p3460
S'pass'
p3461
tp3462
aa(lp3463
S'voldemort.serialization.protobuf.ProtoBufSerializerTest.testClassWithNoParseFrom'
p3464
a(S'pass'
p3465
S'pass'
p3466
S'pass'
p3467
S'pass'
p3468
tp3469
aa(lp3470
S'voldemort.serialization.protobuf.ProtoBufSerializerTest.testNoMessageWithParseFrom'
p3471
a(S'pass'
p3472
S'pass'
p3473
S'pass'
p3474
S'pass'
p3475
tp3476
aa(lp3477
S'voldemort.serialization.protobuf.ProtoBufSerializerTest.testGetSerializer'
p3478
a(S'pass'
p3479
S'pass'
p3480
S'pass'
p3481
S'pass'
p3482
tp3483
aa(lp3484
S'voldemort.utils.ByteUtilsTest.testReadWriteInt'
p3485
a(S'pass'
p3486
S'pass'
p3487
S'pass'
p3488
S'pass'
p3489
tp3490
aa(lp3491
S'voldemort.utils.ByteUtilsTest.testFromHexString'
p3492
a(S'pass'
p3493
S'pass'
p3494
S'pass'
p3495
S'pass'
p3496
tp3497
aa(lp3498
S'voldemort.utils.ByteUtilsTest.testNthByte'
p3499
a(S'pass'
p3500
S'pass'
p3501
S'pass'
p3502
S'pass'
p3503
tp3504
aa(lp3505
S'voldemort.utils.ByteUtilsTest.testMd5'
p3506
a(S'pass'
p3507
S'pass'
p3508
S'pass'
p3509
S'pass'
p3510
tp3511
aa(lp3512
S'voldemort.utils.ByteUtilsTest.testSha1'
p3513
a(S'pass'
p3514
S'pass'
p3515
S'pass'
p3516
S'pass'
p3517
tp3518
aa(lp3519
S'voldemort.utils.ByteUtilsTest.testByteComparison'
p3520
a(S'pass'
p3521
S'pass'
p3522
S'pass'
p3523
S'pass'
p3524
tp3525
aa(lp3526
S'voldemort.utils.ByteUtilsTest.testCat'
p3527
a(S'pass'
p3528
S'pass'
p3529
S'pass'
p3530
S'pass'
p3531
tp3532
aa(lp3533
S'voldemort.utils.ByteUtilsTest.testReadUnsignedInt'
p3534
a(S'pass'
p3535
S'pass'
p3536
S'pass'
p3537
S'pass'
p3538
tp3539
aa(lp3540
S'voldemort.utils.ByteUtilsTest.testToString'
p3541
a(S'pass'
p3542
S'pass'
p3543
S'pass'
p3544
S'pass'
p3545
tp3546
aa(lp3547
S'voldemort.utils.ByteUtilsTest.testReadWriteBytes'
p3548
a(S'pass'
p3549
S'pass'
p3550
S'pass'
p3551
S'pass'
p3552
tp3553
aa(lp3554
S'voldemort.utils.ByteUtilsTest.testGetNumberOfRequiredBytes'
p3555
a(S'pass'
p3556
S'pass'
p3557
S'pass'
p3558
S'pass'
p3559
tp3560
aa(lp3561
S'voldemort.utils.ByteUtilsTest.testCopy'
p3562
a(S'pass'
p3563
S'pass'
p3564
S'pass'
p3565
S'pass'
p3566
tp3567
aa(lp3568
S'voldemort.utils.ByteUtilsTest.testReadWriteShort'
p3569
a(S'pass'
p3570
S'pass'
p3571
S'pass'
p3572
S'pass'
p3573
tp3574
aa(lp3575
S'voldemort.utils.ByteUtilsTest.testReadWriteLong'
p3576
a(S'pass'
p3577
S'pass'
p3578
S'pass'
p3579
S'pass'
p3580
tp3581
aa(lp3582
S'voldemort.utils.VoldemortIOUtilsTest.testToString'
p3583
a(S'pass'
p3584
S'pass'
p3585
S'pass'
p3586
S'pass'
p3587
tp3588
aa(lp3589
S'voldemort.utils.VoldemortIOUtilsTest.testToStringSmall'
p3590
a(S'pass'
p3591
S'pass'
p3592
S'pass'
p3593
S'pass'
p3594
tp3595
aa(lp3596
S'voldemort.utils.VoldemortIOUtilsTest.testCloseQuietlyNullHttpResponse'
p3597
a(S'pass'
p3598
S'pass'
p3599
S'pass'
p3600
S'pass'
p3601
tp3602
aa(lp3603
S'voldemort.utils.VoldemortIOUtilsTest.testCloseQuietlyNullEntity'
p3604
a(S'pass'
p3605
S'pass'
p3606
S'pass'
p3607
S'pass'
p3608
tp3609
aa(lp3610
S'voldemort.store.routed.action.ConfigureNodesTest.testConfigureNodesNotEnoughNodes'
p3611
a(S'pass'
p3612
S'pass'
p3613
S'pass'
p3614
S'pass'
p3615
tp3616
aa(lp3617
S'voldemort.store.routed.action.ConfigureNodesTest.testConfigureNodesWithZones'
p3618
a(S'pass'
p3619
S'pass'
p3620
S'pass'
p3621
S'pass'
p3622
tp3623
aa(lp3624
S'voldemort.store.routed.action.ConfigureNodesTest.testConfigureNodes'
p3625
a(S'pass'
p3626
S'pass'
p3627
S'pass'
p3628
S'pass'
p3629
tp3630
aa(lp3631
S'voldemort.server.rebalance.RebalancerStateTest.testToJson'
p3632
a(S'pass'
p3633
S'pass'
p3634
S'pass'
p3635
S'pass'
p3636
tp3637
aa(lp3638
S'voldemort.tools.PartitionBalanceTest.testNewNodeThingsThatShouldWork'
p3639
a(S'pass'
p3640
S'pass'
p3641
S'pass'
p3642
S'pass'
p3643
tp3644
aa(lp3645
S'voldemort.tools.PartitionBalanceTest.testClusterStoreZoneCountMismatch'
p3646
a(S'pass'
p3647
S'pass'
p3648
S'pass'
p3649
S'pass'
p3650
tp3651
aa(lp3652
S'voldemort.tools.PartitionBalanceTest.testClusterWithZoneThatCannotFullyReplicate'
p3653
a(S'pass'
p3654
S'pass'
p3655
S'pass'
p3656
S'pass'
p3657
tp3658
aa(lp3659
S'voldemort.tools.PartitionBalanceTest.testBasicThingsWithNonContiguousZones'
p3660
a(S'pass'
p3661
S'pass'
p3662
S'pass'
p3663
S'pass'
p3664
tp3665
aa(lp3666
S'voldemort.tools.PartitionBalanceTest.testClusterStoreZoneCountMismatchWithNonContiguousZone'
p3667
a(S'pass'
p3668
S'pass'
p3669
S'pass'
p3670
S'pass'
p3671
tp3672
aa(lp3673
S'voldemort.tools.PartitionBalanceTest.testClusterWithZoneThatCannotFullyReplicateWithNonContiguousZone'
p3674
a(S'pass'
p3675
S'pass'
p3676
S'pass'
p3677
S'pass'
p3678
tp3679
aa(lp3680
S'voldemort.tools.PartitionBalanceTest.testNewNodeThingsThatShouldWorkWithNonContiguousZone'
p3681
a(S'pass'
p3682
S'pass'
p3683
S'pass'
p3684
S'pass'
p3685
tp3686
aa(lp3687
S'voldemort.tools.PartitionBalanceTest.testNonContiguousZoneIdsWithContiguousNodeIDs'
p3688
a(S'pass'
p3689
S'pass'
p3690
S'pass'
p3691
S'pass'
p3692
tp3693
aa(lp3694
S'voldemort.tools.PartitionBalanceTest.testNonContiguousZoneIdsWithNonContiguousNodeIDs'
p3695
a(S'pass'
p3696
S'pass'
p3697
S'pass'
p3698
S'pass'
p3699
tp3700
aa(lp3701
S'voldemort.tools.PartitionBalanceTest.testEmptyZoneThingsThatShouldWork'
p3702
a(S'pass'
p3703
S'pass'
p3704
S'pass'
p3705
S'pass'
p3706
tp3707
aa(lp3708
S'voldemort.tools.PartitionBalanceTest.testBasicThingsThatShouldWork'
p3709
a(S'pass'
p3710
S'pass'
p3711
S'pass'
p3712
S'pass'
p3713
tp3714
aa(lp3715
S'voldemort.store.serialized.SerializingStoreTest.testNullKeys'
p3716
a(S'pass'
p3717
S'pass'
p3718
S'pass'
p3719
S'pass'
p3720
tp3721
aa(lp3722
S'voldemort.store.serialized.SerializingStoreTest.testPutNullValue'
p3723
a(S'pass'
p3724
S'pass'
p3725
S'pass'
p3726
S'pass'
p3727
tp3728
aa(lp3729
S'voldemort.store.serialized.SerializingStoreTest.testGetAndDeleteNonExistentKey'
p3730
a(S'pass'
p3731
S'pass'
p3732
S'pass'
p3733
S'pass'
p3734
tp3735
aa(lp3736
S'voldemort.store.serialized.SerializingStoreTest.testFetchedEqualsPut'
p3737
a(S'pass'
p3738
S'pass'
p3739
S'pass'
p3740
S'pass'
p3741
tp3742
aa(lp3743
S'voldemort.store.serialized.SerializingStoreTest.testVersionedPut'
p3744
a(S'pass'
p3745
S'pass'
p3746
S'pass'
p3747
S'pass'
p3748
tp3749
aa(lp3750
S'voldemort.store.serialized.SerializingStoreTest.testDelete'
p3751
a(S'pass'
p3752
S'pass'
p3753
S'pass'
p3754
S'pass'
p3755
tp3756
aa(lp3757
S'voldemort.store.serialized.SerializingStoreTest.testGetVersions'
p3758
a(S'pass'
p3759
S'pass'
p3760
S'pass'
p3761
S'pass'
p3762
tp3763
aa(lp3764
S'voldemort.store.serialized.SerializingStoreTest.testGetAll'
p3765
a(S'pass'
p3766
S'pass'
p3767
S'pass'
p3768
S'pass'
p3769
tp3770
aa(lp3771
S'voldemort.store.serialized.SerializingStoreTest.testGetAllWithAbsentKeys'
p3772
a(S'pass'
p3773
S'pass'
p3774
S'pass'
p3775
S'pass'
p3776
tp3777
aa(lp3778
S'voldemort.store.serialized.SerializingStoreTest.testCloseIsIdempotent'
p3779
a(S'pass'
p3780
S'pass'
p3781
S'pass'
p3782
S'pass'
p3783
tp3784
aa(lp3785
S'voldemort.client.rebalance.ZonedRebalanceTest.testNoopZZ'
p3786
a(S'pass'
p3787
S'pass'
p3788
S'pass'
p3789
S'pass'
p3790
tp3791
aa(lp3792
S'voldemort.client.rebalance.ZonedRebalanceTest.testShuffleZZ'
p3793
a(S'pass'
p3794
S'pass'
p3795
S'pass'
p3796
S'pass'
p3797
tp3798
aa(lp3799
S'voldemort.client.rebalance.ZonedRebalanceTest.testShuffleZZAndShuffleAgain'
p3800
a(S'pass'
p3801
S'pass'
p3802
S'pass'
p3803
S'pass'
p3804
tp3805
aa(lp3806
S'voldemort.client.rebalance.ZonedRebalanceTest.testClusterExpansion'
p3807
a(S'pass'
p3808
S'pass'
p3809
S'pass'
p3810
S'pass'
p3811
tp3812
aa(lp3813
S'voldemort.client.rebalance.ZonedRebalanceTest.testNoopZZZ'
p3814
a(S'pass'
p3815
S'pass'
p3816
S'pass'
p3817
S'pass'
p3818
tp3819
aa(lp3820
S'voldemort.client.rebalance.ZonedRebalanceTest.testShuffleZZZ'
p3821
a(S'pass'
p3822
S'pass'
p3823
S'pass'
p3824
S'pass'
p3825
tp3826
aa(lp3827
S'voldemort.client.rebalance.ZonedRebalanceTest.testClusterExpansionZZZ'
p3828
a(S'pass'
p3829
S'pass'
p3830
S'pass'
p3831
S'pass'
p3832
tp3833
aa(lp3834
S'voldemort.client.rebalance.ZonedRebalanceTest.testZoneExpansionZZ2ZZZ'
p3835
a(S'pass'
p3836
S'pass'
p3837
S'pass'
p3838
S'pass'
p3839
tp3840
aa(lp3841
S'voldemort.client.rebalance.ZonedRebalanceTest.testRWRebalance'
p3842
a(S'pass'
p3843
S'pass'
p3844
S'pass'
p3845
S'pass'
p3846
tp3847
aa(lp3848
S'voldemort.client.rebalance.ZonedRebalanceTest.testRWRebalanceWithReplication'
p3849
a(S'pass'
p3850
S'pass'
p3851
S'pass'
p3852
S'pass'
p3853
tp3854
aa(lp3855
S'voldemort.client.rebalance.ZonedRebalanceTest.testRWRebalanceWithReplicationSerial'
p3856
a(S'pass'
p3857
S'pass'
p3858
S'pass'
p3859
S'pass'
p3860
tp3861
aa(lp3862
S'voldemort.client.rebalance.ZonedRebalanceTest.testRebalanceCleanPrimarySecondary'
p3863
a(S'pass'
p3864
S'pass'
p3865
S'pass'
p3866
S'pass'
p3867
tp3868
aa(lp3869
S'voldemort.client.rebalance.ZonedRebalanceTest.testProxyGetDuringRebalancing'
p3870
a(S'pass'
p3871
S'pass'
p3872
S'pass'
p3873
S'pass'
p3874
tp3875
aa(lp3876
S'voldemort.client.rebalance.ZonedRebalanceTest.testProxyPutDuringRebalancing'
p3877
a(S'pass'
p3878
S'pass'
p3879
S'pass'
p3880
S'pass'
p3881
tp3882
aa(lp3883
S'voldemort.scheduled.SlopPurgeTest.testPurgeByNodeIds'
p3884
a(S'pass'
p3885
S'pass'
p3886
S'pass'
p3887
S'pass'
p3888
tp3889
aa(lp3890
S'voldemort.scheduled.SlopPurgeTest.testPurgeByZone'
p3891
a(S'pass'
p3892
S'pass'
p3893
S'pass'
p3894
S'pass'
p3895
tp3896
aa(lp3897
S'voldemort.scheduled.SlopPurgeTest.testPurgeByStore'
p3898
a(S'pass'
p3899
S'pass'
p3900
S'pass'
p3901
S'pass'
p3902
tp3903
aa(lp3904
S'voldemort.scheduled.SlopPurgeTest.testPurgeMixed'
p3905
a(S'pass'
p3906
S'pass'
p3907
S'pass'
p3908
S'pass'
p3909
tp3910
aa(lp3911
S'voldemort.store.rocksdb.RocksdbStorageEngineTest.testIterationWithSerialization[0]'
p3912
a(S'pass'
p3913
S'pass'
p3914
S'pass'
p3915
S'pass'
p3916
tp3917
aa(lp3918
S'voldemort.store.rocksdb.RocksdbStorageEngineTest.testPruneOnWrite[0]'
p3919
a(S'pass'
p3920
S'pass'
p3921
S'pass'
p3922
S'pass'
p3923
tp3924
aa(lp3925
S'voldemort.store.rocksdb.RocksdbStorageEngineTest.testTruncate[0]'
p3926
a(S'pass'
p3927
S'pass'
p3928
S'pass'
p3929
S'pass'
p3930
tp3931
aa(lp3932
S'voldemort.store.rocksdb.RocksdbStorageEngineTest.testMultiVersionPuts[0]'
p3933
a(S'pass'
p3934
S'pass'
p3935
S'pass'
p3936
S'pass'
p3937
tp3938
aa(lp3939
S'voldemort.store.rocksdb.RocksdbStorageEngineTest.testEntryIteration[0]'
p3940
a(S'pass'
p3941
S'pass'
p3942
S'pass'
p3943
S'pass'
p3944
tp3945
aa(lp3946
S'voldemort.store.rocksdb.RocksdbStorageEngineTest.testGetNoEntries[0]'
p3947
a(S'pass'
p3948
S'pass'
p3949
S'pass'
p3950
S'pass'
p3951
tp3952
aa(lp3953
S'voldemort.store.rocksdb.RocksdbStorageEngineTest.testGetNoKeys[0]'
p3954
a(S'pass'
p3955
S'pass'
p3956
S'pass'
p3957
S'pass'
p3958
tp3959
aa(lp3960
S'voldemort.store.rocksdb.RocksdbStorageEngineTest.testKeyIterationWithSerialization[0]'
p3961
a(S'pass'
p3962
S'pass'
p3963
S'pass'
p3964
S'pass'
p3965
tp3966
aa(lp3967
S'voldemort.store.rocksdb.RocksdbStorageEngineTest.testEmptyByteArray[0]'
p3968
a(S'pass'
p3969
S'pass'
p3970
S'pass'
p3971
S'pass'
p3972
tp3973
aa(lp3974
S'voldemort.store.rocksdb.RocksdbStorageEngineTest.testNullKeys[0]'
p3975
a(S'pass'
p3976
S'pass'
p3977
S'pass'
p3978
S'pass'
p3979
tp3980
aa(lp3981
S'voldemort.store.rocksdb.RocksdbStorageEngineTest.testPutNullValue[0]'
p3982
a(S'pass'
p3983
S'pass'
p3984
S'pass'
p3985
S'pass'
p3986
tp3987
aa(lp3988
S'voldemort.store.rocksdb.RocksdbStorageEngineTest.testGetAndDeleteNonExistentKey[0]'
p3989
a(S'pass'
p3990
S'pass'
p3991
S'pass'
p3992
S'pass'
p3993
tp3994
aa(lp3995
S'voldemort.store.rocksdb.RocksdbStorageEngineTest.testFetchedEqualsPut[0]'
p3996
a(S'pass'
p3997
S'pass'
p3998
S'pass'
p3999
S'pass'
p4000
tp4001
aa(lp4002
S'voldemort.store.rocksdb.RocksdbStorageEngineTest.testVersionedPut[0]'
p4003
a(S'pass'
p4004
S'pass'
p4005
S'pass'
p4006
S'pass'
p4007
tp4008
aa(lp4009
S'voldemort.store.rocksdb.RocksdbStorageEngineTest.testDelete[0]'
p4010
a(S'pass'
p4011
S'pass'
p4012
S'pass'
p4013
S'pass'
p4014
tp4015
aa(lp4016
S'voldemort.store.rocksdb.RocksdbStorageEngineTest.testGetVersions[0]'
p4017
a(S'pass'
p4018
S'pass'
p4019
S'pass'
p4020
S'pass'
p4021
tp4022
aa(lp4023
S'voldemort.store.rocksdb.RocksdbStorageEngineTest.testGetAll[0]'
p4024
a(S'pass'
p4025
S'pass'
p4026
S'pass'
p4027
S'pass'
p4028
tp4029
aa(lp4030
S'voldemort.store.rocksdb.RocksdbStorageEngineTest.testGetAllWithAbsentKeys[0]'
p4031
a(S'pass'
p4032
S'pass'
p4033
S'pass'
p4034
S'pass'
p4035
tp4036
aa(lp4037
S'voldemort.store.rocksdb.RocksdbStorageEngineTest.testCloseIsIdempotent[0]'
p4038
a(S'pass'
p4039
S'pass'
p4040
S'pass'
p4041
S'pass'
p4042
tp4043
aa(lp4044
S'voldemort.store.rocksdb.RocksdbStorageEngineTest.testIterationWithSerialization[1]'
p4045
a(S'pass'
p4046
S'pass'
p4047
S'pass'
p4048
S'pass'
p4049
tp4050
aa(lp4051
S'voldemort.store.rocksdb.RocksdbStorageEngineTest.testPruneOnWrite[1]'
p4052
a(S'pass'
p4053
S'pass'
p4054
S'pass'
p4055
S'pass'
p4056
tp4057
aa(lp4058
S'voldemort.store.rocksdb.RocksdbStorageEngineTest.testTruncate[1]'
p4059
a(S'pass'
p4060
S'pass'
p4061
S'pass'
p4062
S'pass'
p4063
tp4064
aa(lp4065
S'voldemort.store.rocksdb.RocksdbStorageEngineTest.testMultiVersionPuts[1]'
p4066
a(S'pass'
p4067
S'pass'
p4068
S'pass'
p4069
S'pass'
p4070
tp4071
aa(lp4072
S'voldemort.store.rocksdb.RocksdbStorageEngineTest.testEntryIteration[1]'
p4073
a(S'pass'
p4074
S'pass'
p4075
S'pass'
p4076
S'pass'
p4077
tp4078
aa(lp4079
S'voldemort.store.rocksdb.RocksdbStorageEngineTest.testGetNoEntries[1]'
p4080
a(S'pass'
p4081
S'pass'
p4082
S'pass'
p4083
S'pass'
p4084
tp4085
aa(lp4086
S'voldemort.store.rocksdb.RocksdbStorageEngineTest.testGetNoKeys[1]'
p4087
a(S'pass'
p4088
S'pass'
p4089
S'pass'
p4090
S'pass'
p4091
tp4092
aa(lp4093
S'voldemort.store.rocksdb.RocksdbStorageEngineTest.testKeyIterationWithSerialization[1]'
p4094
a(S'pass'
p4095
S'pass'
p4096
S'pass'
p4097
S'pass'
p4098
tp4099
aa(lp4100
S'voldemort.store.rocksdb.RocksdbStorageEngineTest.testEmptyByteArray[1]'
p4101
a(S'pass'
p4102
S'pass'
p4103
S'pass'
p4104
S'pass'
p4105
tp4106
aa(lp4107
S'voldemort.store.rocksdb.RocksdbStorageEngineTest.testNullKeys[1]'
p4108
a(S'pass'
p4109
S'pass'
p4110
S'pass'
p4111
S'pass'
p4112
tp4113
aa(lp4114
S'voldemort.store.rocksdb.RocksdbStorageEngineTest.testPutNullValue[1]'
p4115
a(S'pass'
p4116
S'pass'
p4117
S'pass'
p4118
S'pass'
p4119
tp4120
aa(lp4121
S'voldemort.store.rocksdb.RocksdbStorageEngineTest.testGetAndDeleteNonExistentKey[1]'
p4122
a(S'pass'
p4123
S'pass'
p4124
S'pass'
p4125
S'pass'
p4126
tp4127
aa(lp4128
S'voldemort.store.rocksdb.RocksdbStorageEngineTest.testFetchedEqualsPut[1]'
p4129
a(S'pass'
p4130
S'pass'
p4131
S'pass'
p4132
S'pass'
p4133
tp4134
aa(lp4135
S'voldemort.store.rocksdb.RocksdbStorageEngineTest.testVersionedPut[1]'
p4136
a(S'pass'
p4137
S'pass'
p4138
S'pass'
p4139
S'pass'
p4140
tp4141
aa(lp4142
S'voldemort.store.rocksdb.RocksdbStorageEngineTest.testDelete[1]'
p4143
a(S'pass'
p4144
S'pass'
p4145
S'pass'
p4146
S'pass'
p4147
tp4148
aa(lp4149
S'voldemort.store.rocksdb.RocksdbStorageEngineTest.testGetVersions[1]'
p4150
a(S'pass'
p4151
S'pass'
p4152
S'pass'
p4153
S'pass'
p4154
tp4155
aa(lp4156
S'voldemort.store.rocksdb.RocksdbStorageEngineTest.testGetAll[1]'
p4157
a(S'pass'
p4158
S'pass'
p4159
S'pass'
p4160
S'pass'
p4161
tp4162
aa(lp4163
S'voldemort.store.rocksdb.RocksdbStorageEngineTest.testGetAllWithAbsentKeys[1]'
p4164
a(S'pass'
p4165
S'pass'
p4166
S'pass'
p4167
S'pass'
p4168
tp4169
aa(lp4170
S'voldemort.store.rocksdb.RocksdbStorageEngineTest.testCloseIsIdempotent[1]'
p4171
a(S'pass'
p4172
S'pass'
p4173
S'pass'
p4174
S'pass'
p4175
tp4176
aa(lp4177
S'voldemort.utils.NetworkClassLoaderTest.testUserDefinedClass'
p4178
a(S'pass'
p4179
S'pass'
p4180
S'pass'
p4181
S'pass'
p4182
tp4183
aa(lp4184
S'voldemort.utils.NetworkClassLoaderTest.testPrimitiveLoadClass'
p4185
a(S'pass'
p4186
S'pass'
p4187
S'pass'
p4188
S'pass'
p4189
tp4190
aa(lp4191
S'voldemort.coordinator.CoordinatorRestAPITest.testReadAfterWrite'
p4192
a(S'pass'
p4193
S'pass'
p4194
S'pass'
p4195
S'pass'
p4196
tp4197
aa(lp4198
S'voldemort.coordinator.CoordinatorRestAPITest.testDelete'
p4199
a(S'pass'
p4200
S'pass'
p4201
S'pass'
p4202
S'pass'
p4203
tp4204
aa(lp4205
S'voldemort.coordinator.CoordinatorRestAPITest.testVersionedPut'
p4206
a(S'pass'
p4207
S'pass'
p4208
S'pass'
p4209
S'pass'
p4210
tp4211
aa(lp4212
S'voldemort.coordinator.CoordinatorRestAPITest.testLargeValueSizeVersionedPut'
p4213
a(S'pass'
p4214
S'pass'
p4215
S'pass'
p4216
S'pass'
p4217
tp4218
aa(lp4219
S'voldemort.coordinator.CoordinatorRestAPITest.testWriteWithTimeout'
p4220
a(S'pass'
p4221
S'pass'
p4222
S'pass'
p4223
S'pass'
p4224
tp4225
aa(lp4226
S'voldemort.store.slop.SlopTest.testMakeKey'
p4227
a(S'pass'
p4228
S'pass'
p4229
S'pass'
p4230
S'pass'
p4231
tp4232
aa(lp4233
S'voldemort.cluster.ClusterTest.testBasics[0]'
p4234
a(S'pass'
p4235
S'pass'
p4236
S'pass'
p4237
S'pass'
p4238
tp4239
aa(lp4240
S'voldemort.cluster.ClusterTest.testStatusBeginsAsAvailable[0]'
p4241
a(S'pass'
p4242
S'pass'
p4243
S'pass'
p4244
S'pass'
p4245
tp4246
aa(lp4247
S'voldemort.cluster.ClusterTest.testBasics[1]'
p4248
a(S'pass'
p4249
S'pass'
p4250
S'pass'
p4251
S'pass'
p4252
tp4253
aa(lp4254
S'voldemort.cluster.ClusterTest.testStatusBeginsAsAvailable[1]'
p4255
a(S'pass'
p4256
S'pass'
p4257
S'pass'
p4258
S'pass'
p4259
tp4260
aa(lp4261
S'voldemort.cluster.ClusterTest.testBasics[2]'
p4262
a(S'pass'
p4263
S'pass'
p4264
S'pass'
p4265
S'pass'
p4266
tp4267
aa(lp4268
S'voldemort.cluster.ClusterTest.testStatusBeginsAsAvailable[2]'
p4269
a(S'pass'
p4270
S'pass'
p4271
S'pass'
p4272
S'pass'
p4273
tp4274
aa(lp4275
S'voldemort.serialization.json.JsonBackwardsCompatibilityTest.testBinaryCompatibility'
p4276
a(S'pass'
p4277
S'pass'
p4278
S'pass'
p4279
S'pass'
p4280
tp4281
aa(lp4282
S'voldemort.scheduled.SlopPusherDeadSlopTest.testAutoPurge[0]'
p4283
a(S'pass'
p4284
S'pass'
p4285
S'pass'
p4286
S'pass'
p4287
tp4288
aa(lp4289
S'voldemort.scheduled.SlopPusherDeadSlopTest.testAutoPurge[1]'
p4290
a(S'pass'
p4291
S'pass'
p4292
S'pass'
p4293
S'pass'
p4294
tp4295
aa(lp4296
S'voldemort.cluster.failuredetector.BannagePeriodFailureDetectorTest.testCatastrophicErrors'
p4297
a(S'pass'
p4298
S'pass'
p4299
S'pass'
p4300
S'pass'
p4301
tp4302
aa(lp4303
S'voldemort.cluster.failuredetector.BannagePeriodFailureDetectorTest.testTimeoutJmx'
p4304
a(S'pass'
p4305
S'pass'
p4306
S'pass'
p4307
S'pass'
p4308
tp4309
aa(lp4310
S'voldemort.cluster.failuredetector.BannagePeriodFailureDetectorTest.testCumulativeFailures'
p4311
a(S'pass'
p4312
S'pass'
p4313
S'pass'
p4314
S'pass'
p4315
tp4316
aa(lp4317
S'voldemort.cluster.failuredetector.BannagePeriodFailureDetectorTest.testForceSuccess'
p4318
a(S'pass'
p4319
S'pass'
p4320
S'pass'
p4321
S'pass'
p4322
tp4323
aa(lp4324
S'voldemort.cluster.failuredetector.BannagePeriodFailureDetectorTest.testTimeout'
p4325
a(S'pass'
p4326
S'pass'
p4327
S'pass'
p4328
S'pass'
p4329
tp4330
aa(lp4331
S'voldemort.cluster.failuredetector.BannagePeriodFailureDetectorTest.testInvalidNode'
p4332
a(S'skip'
p4333
S'skip'
p4334
S'skip'
p4335
S'skip'
p4336
tp4337
aa(lp4338
S'voldemort.cluster.failuredetector.BannagePeriodFailureDetectorTest.testGeneralJmx'
p4339
a(S'pass'
p4340
S'pass'
p4341
S'pass'
p4342
S'pass'
p4343
tp4344
aa(lp4345
S'voldemort.routing.ZoneRoutingStrategyTest.testReplication'
p4346
a(S'pass'
p4347
S'pass'
p4348
S'pass'
p4349
S'pass'
p4350
tp4351
aa(lp4352
S'voldemort.routing.ZoneRoutingStrategyTest.testReplicationWithNonContiguousZonesAndNodes'
p4353
a(S'pass'
p4354
S'pass'
p4355
S'pass'
p4356
S'pass'
p4357
tp4358
aa(lp4359
S'voldemort.client.ReplaceNodeTest.testNodeDownReplacement'
p4360
a(S'pass'
p4361
S'pass'
p4362
S'pass'
p4363
S'pass'
p4364
tp4365
aa(lp4366
S'voldemort.client.ReplaceNodeTest.testNodeReplacement'
p4367
a(S'fail'
p4368
S'pass'
p4369
S'fail'
p4370
S'pass'
p4371
tp4372
aa(lp4373
S'voldemort.server.storage.ScanPermitWrapperTest.testProgress'
p4374
a(S'pass'
p4375
S'pass'
p4376
S'pass'
p4377
S'pass'
p4378
tp4379
aa(lp4380
S'voldemort.server.storage.ScanPermitWrapperTest.testBasicPermitOwner'
p4381
a(S'pass'
p4382
S'pass'
p4383
S'pass'
p4384
S'pass'
p4385
tp4386
aa(lp4387
S'voldemort.server.storage.ScanPermitWrapperTest.testProgressInMultipleIterations'
p4388
a(S'pass'
p4389
S'pass'
p4390
S'pass'
p4391
S'pass'
p4392
tp4393
aa(lp4394
S'voldemort.store.routed.ZoneAffinityGetVersionsTest.testLocalZoneDown[0]'
p4395
a(S'pass'
p4396
S'pass'
p4397
S'pass'
p4398
S'pass'
p4399
tp4400
aa(lp4401
S'voldemort.store.routed.ZoneAffinityGetVersionsTest.testLocalZonePartialDownSufficientReads[0]'
p4402
a(S'pass'
p4403
S'pass'
p4404
S'pass'
p4405
S'pass'
p4406
tp4407
aa(lp4408
S'voldemort.store.routed.ZoneAffinityGetVersionsTest.testLocalZonePartialDownInSufficientReads[0]'
p4409
a(S'pass'
p4410
S'pass'
p4411
S'pass'
p4412
S'pass'
p4413
tp4414
aa(lp4415
S'voldemort.store.routed.ZoneAffinityGetVersionsTest.testAllUp[0]'
p4416
a(S'pass'
p4417
S'pass'
p4418
S'pass'
p4419
S'pass'
p4420
tp4421
aa(lp4422
S'voldemort.store.routed.ZoneAffinityGetVersionsTest.testLocalZoneDown[1]'
p4423
a(S'pass'
p4424
S'pass'
p4425
S'pass'
p4426
S'pass'
p4427
tp4428
aa(lp4429
S'voldemort.store.routed.ZoneAffinityGetVersionsTest.testLocalZonePartialDownSufficientReads[1]'
p4430
a(S'pass'
p4431
S'pass'
p4432
S'pass'
p4433
S'pass'
p4434
tp4435
aa(lp4436
S'voldemort.store.routed.ZoneAffinityGetVersionsTest.testLocalZonePartialDownInSufficientReads[1]'
p4437
a(S'pass'
p4438
S'pass'
p4439
S'pass'
p4440
S'pass'
p4441
tp4442
aa(lp4443
S'voldemort.store.routed.ZoneAffinityGetVersionsTest.testAllUp[1]'
p4444
a(S'pass'
p4445
S'pass'
p4446
S'pass'
p4447
S'pass'
p4448
tp4449
aa(lp4450
S'voldemort.store.routed.ZoneAffinityGetVersionsTest.testLocalZoneDown[2]'
p4451
a(S'pass'
p4452
S'pass'
p4453
S'pass'
p4454
S'pass'
p4455
tp4456
aa(lp4457
S'voldemort.store.routed.ZoneAffinityGetVersionsTest.testLocalZonePartialDownSufficientReads[2]'
p4458
a(S'pass'
p4459
S'pass'
p4460
S'pass'
p4461
S'pass'
p4462
tp4463
aa(lp4464
S'voldemort.store.routed.ZoneAffinityGetVersionsTest.testLocalZonePartialDownInSufficientReads[2]'
p4465
a(S'pass'
p4466
S'pass'
p4467
S'pass'
p4468
S'fail'
p4469
tp4470
aa(lp4471
S'voldemort.store.routed.ZoneAffinityGetVersionsTest.testAllUp[2]'
p4472
a(S'pass'
p4473
S'pass'
p4474
S'pass'
p4475
S'pass'
p4476
tp4477
aa(lp4478
S'voldemort.store.routed.ZoneAffinityGetVersionsTest.testLocalZoneDown[3]'
p4479
a(S'pass'
p4480
S'pass'
p4481
S'pass'
p4482
S'fail'
p4483
tp4484
aa(lp4485
S'voldemort.store.routed.ZoneAffinityGetVersionsTest.testLocalZonePartialDownSufficientReads[3]'
p4486
a(S'pass'
p4487
S'pass'
p4488
S'pass'
p4489
S'fail'
p4490
tp4491
aa(lp4492
S'voldemort.store.routed.ZoneAffinityGetVersionsTest.testLocalZonePartialDownInSufficientReads[3]'
p4493
a(S'pass'
p4494
S'pass'
p4495
S'pass'
p4496
S'fail'
p4497
tp4498
aa(lp4499
S'voldemort.store.routed.ZoneAffinityGetVersionsTest.testAllUp[3]'
p4500
a(S'pass'
p4501
S'pass'
p4502
S'pass'
p4503
S'fail'
p4504
tp4505
aa(lp4506
S'voldemort.store.routed.ZoneAffinityGetVersionsTest.testLocalZoneDown[4]'
p4507
a(S'pass'
p4508
S'pass'
p4509
S'pass'
p4510
S'fail'
p4511
tp4512
aa(lp4513
S'voldemort.store.routed.ZoneAffinityGetVersionsTest.testLocalZonePartialDownSufficientReads[4]'
p4514
a(S'pass'
p4515
S'pass'
p4516
S'pass'
p4517
S'fail'
p4518
tp4519
aa(lp4520
S'voldemort.store.routed.ZoneAffinityGetVersionsTest.testLocalZonePartialDownInSufficientReads[4]'
p4521
a(S'pass'
p4522
S'pass'
p4523
S'pass'
p4524
S'fail'
p4525
tp4526
aa(lp4527
S'voldemort.store.routed.ZoneAffinityGetVersionsTest.testAllUp[4]'
p4528
a(S'pass'
p4529
S'pass'
p4530
S'pass'
p4531
S'fail'
p4532
tp4533
aa(lp4534
S'voldemort.utils.CachedCallableTest.testCall'
p4535
a(S'pass'
p4536
S'pass'
p4537
S'pass'
p4538
S'pass'
p4539
tp4540
aa(lp4541
S'voldemort.utils.CachedCallableTest.testCaching'
p4542
a(S'pass'
p4543
S'pass'
p4544
S'pass'
p4545
S'pass'
p4546
tp4547
aa(lp4548
S'voldemort.utils.CachedCallableTest.testTtl'
p4549
a(S'pass'
p4550
S'pass'
p4551
S'pass'
p4552
S'pass'
p4553
tp4554
aa(lp4555
S'voldemort.tools.admin.QuotaOperationsTest.testQuotaSetAndUnset'
p4556
a(S'pass'
p4557
S'fail'
p4558
S'pass'
p4559
S'pass'
p4560
tp4561
aa(lp4562
S'voldemort.store.rebalancing.RebootstrappingStoreTest.testGet'
p4563
a(S'pass'
p4564
S'pass'
p4565
S'pass'
p4566
S'pass'
p4567
tp4568
aa(lp4569
S'voldemort.store.rebalancing.RebootstrappingStoreTest.testPut'
p4570
a(S'pass'
p4571
S'pass'
p4572
S'pass'
p4573
S'pass'
p4574
tp4575
aa(lp4576
S'voldemort.store.rebalancing.RebootstrappingStoreTest.testDelete'
p4577
a(S'pass'
p4578
S'pass'
p4579
S'pass'
p4580
S'pass'
p4581
tp4582
aa(lp4583
S'voldemort.store.rebalancing.RebootstrappingStoreTest.testGetAll'
p4584
a(S'pass'
p4585
S'pass'
p4586
S'pass'
p4587
S'pass'
p4588
tp4589
aa(lp4590
S'voldemort.store.memory.CacheStorageEngineTest.testNoPressureBehavior'
p4591
a(S'pass'
p4592
S'pass'
p4593
S'pass'
p4594
S'pass'
p4595
tp4596
aa(lp4597
S'voldemort.store.memory.CacheStorageEngineTest.testHighMemoryCollection'
p4598
a(S'pass'
p4599
S'pass'
p4600
S'pass'
p4601
S'pass'
p4602
tp4603
aa(lp4604
S'voldemort.store.memory.CacheStorageEngineTest.testPruneOnWrite'
p4605
a(S'pass'
p4606
S'pass'
p4607
S'pass'
p4608
S'pass'
p4609
tp4610
aa(lp4611
S'voldemort.store.memory.CacheStorageEngineTest.testTruncate'
p4612
a(S'pass'
p4613
S'pass'
p4614
S'pass'
p4615
S'pass'
p4616
tp4617
aa(lp4618
S'voldemort.store.memory.CacheStorageEngineTest.testMultiVersionPuts'
p4619
a(S'pass'
p4620
S'pass'
p4621
S'pass'
p4622
S'pass'
p4623
tp4624
aa(lp4625
S'voldemort.store.memory.CacheStorageEngineTest.testEntryIteration'
p4626
a(S'pass'
p4627
S'pass'
p4628
S'pass'
p4629
S'pass'
p4630
tp4631
aa(lp4632
S'voldemort.store.memory.CacheStorageEngineTest.testGetNoEntries'
p4633
a(S'pass'
p4634
S'pass'
p4635
S'pass'
p4636
S'pass'
p4637
tp4638
aa(lp4639
S'voldemort.store.memory.CacheStorageEngineTest.testGetNoKeys'
p4640
a(S'pass'
p4641
S'pass'
p4642
S'pass'
p4643
S'pass'
p4644
tp4645
aa(lp4646
S'voldemort.store.memory.CacheStorageEngineTest.testKeyIterationWithSerialization'
p4647
a(S'pass'
p4648
S'pass'
p4649
S'pass'
p4650
S'pass'
p4651
tp4652
aa(lp4653
S'voldemort.store.memory.CacheStorageEngineTest.testIterationWithSerialization'
p4654
a(S'pass'
p4655
S'pass'
p4656
S'pass'
p4657
S'pass'
p4658
tp4659
aa(lp4660
S'voldemort.store.memory.CacheStorageEngineTest.testEmptyByteArray'
p4661
a(S'pass'
p4662
S'pass'
p4663
S'pass'
p4664
S'pass'
p4665
tp4666
aa(lp4667
S'voldemort.store.memory.CacheStorageEngineTest.testNullKeys'
p4668
a(S'pass'
p4669
S'pass'
p4670
S'pass'
p4671
S'pass'
p4672
tp4673
aa(lp4674
S'voldemort.store.memory.CacheStorageEngineTest.testPutNullValue'
p4675
a(S'pass'
p4676
S'pass'
p4677
S'pass'
p4678
S'pass'
p4679
tp4680
aa(lp4681
S'voldemort.store.memory.CacheStorageEngineTest.testGetAndDeleteNonExistentKey'
p4682
a(S'pass'
p4683
S'pass'
p4684
S'pass'
p4685
S'pass'
p4686
tp4687
aa(lp4688
S'voldemort.store.memory.CacheStorageEngineTest.testFetchedEqualsPut'
p4689
a(S'pass'
p4690
S'pass'
p4691
S'pass'
p4692
S'pass'
p4693
tp4694
aa(lp4695
S'voldemort.store.memory.CacheStorageEngineTest.testVersionedPut'
p4696
a(S'pass'
p4697
S'pass'
p4698
S'pass'
p4699
S'pass'
p4700
tp4701
aa(lp4702
S'voldemort.store.memory.CacheStorageEngineTest.testDelete'
p4703
a(S'pass'
p4704
S'pass'
p4705
S'pass'
p4706
S'pass'
p4707
tp4708
aa(lp4709
S'voldemort.store.memory.CacheStorageEngineTest.testGetVersions'
p4710
a(S'pass'
p4711
S'pass'
p4712
S'pass'
p4713
S'pass'
p4714
tp4715
aa(lp4716
S'voldemort.store.memory.CacheStorageEngineTest.testGetAll'
p4717
a(S'pass'
p4718
S'pass'
p4719
S'pass'
p4720
S'pass'
p4721
tp4722
aa(lp4723
S'voldemort.store.memory.CacheStorageEngineTest.testGetAllWithAbsentKeys'
p4724
a(S'pass'
p4725
S'pass'
p4726
S'pass'
p4727
S'pass'
p4728
tp4729
aa(lp4730
S'voldemort.store.memory.CacheStorageEngineTest.testCloseIsIdempotent'
p4731
a(S'pass'
p4732
S'pass'
p4733
S'pass'
p4734
S'pass'
p4735
tp4736
aa(lp4737
S'voldemort.server.ServiceTest.testBeginsUnstarted'
p4738
a(S'pass'
p4739
S'pass'
p4740
S'pass'
p4741
S'pass'
p4742
tp4743
aa(lp4744
S'voldemort.server.ServiceTest.testStartStartsAndStopStops'
p4745
a(S'pass'
p4746
S'pass'
p4747
S'pass'
p4748
S'pass'
p4749
tp4750
aa(lp4751
S'voldemort.cluster.failuredetector.ServerStoreConnectionVerifierTest.testMetadataStore[0]'
p4752
a(S'pass'
p4753
S'pass'
p4754
S'pass'
p4755
S'pass'
p4756
tp4757
aa(lp4758
S'voldemort.cluster.failuredetector.ServerStoreConnectionVerifierTest.testMetadataStore[1]'
p4759
a(S'pass'
p4760
S'pass'
p4761
S'pass'
p4762
S'pass'
p4763
tp4764
aa(lp4765
S'voldemort.store.rebalancing.RedirectingStoreTest.testProxyPuts[0]'
p4766
a(S'pass'
p4767
S'pass'
p4768
S'pass'
p4769
S'pass'
p4770
tp4771
aa(lp4772
S'voldemort.store.rebalancing.RedirectingStoreTest.testProxyFetchOptimizations[0]'
p4773
a(S'pass'
p4774
S'pass'
p4775
S'pass'
p4776
S'pass'
p4777
tp4778
aa(lp4779
S'voldemort.store.rebalancing.RedirectingStoreTest.testProxyGet[0]'
p4780
a(S'pass'
p4781
S'pass'
p4782
S'pass'
p4783
S'pass'
p4784
tp4785
aa(lp4786
S'voldemort.store.rebalancing.RedirectingStoreTest.testProxyGetAll[0]'
p4787
a(S'pass'
p4788
S'pass'
p4789
S'pass'
p4790
S'pass'
p4791
tp4792
aa(lp4793
S'voldemort.store.rebalancing.RedirectingStoreTest.testProxyGetDuringPut[0]'
p4794
a(S'pass'
p4795
S'pass'
p4796
S'pass'
p4797
S'pass'
p4798
tp4799
aa(lp4800
S'voldemort.store.rebalancing.RedirectingStoreTest.testProxyPuts[1]'
p4801
a(S'pass'
p4802
S'pass'
p4803
S'pass'
p4804
S'pass'
p4805
tp4806
aa(lp4807
S'voldemort.store.rebalancing.RedirectingStoreTest.testProxyFetchOptimizations[1]'
p4808
a(S'pass'
p4809
S'pass'
p4810
S'pass'
p4811
S'pass'
p4812
tp4813
aa(lp4814
S'voldemort.store.rebalancing.RedirectingStoreTest.testProxyGet[1]'
p4815
a(S'pass'
p4816
S'pass'
p4817
S'pass'
p4818
S'pass'
p4819
tp4820
aa(lp4821
S'voldemort.store.rebalancing.RedirectingStoreTest.testProxyGetAll[1]'
p4822
a(S'pass'
p4823
S'pass'
p4824
S'pass'
p4825
S'pass'
p4826
tp4827
aa(lp4828
S'voldemort.store.rebalancing.RedirectingStoreTest.testProxyGetDuringPut[1]'
p4829
a(S'pass'
p4830
S'pass'
p4831
S'pass'
p4832
S'pass'
p4833
tp4834
aa(lp4835
S'voldemort.client.EndToEndRebootstrapTest.testEndToEndRebootstrapWithSetMetadataPair'
p4836
a(S'pass'
p4837
S'pass'
p4838
S'pass'
p4839
S'pass'
p4840
tp4841
aa(lp4842
S'voldemort.client.EndToEndRebootstrapTest.testEndToEndRebootstrap'
p4843
a(S'pass'
p4844
S'pass'
p4845
S'pass'
p4846
S'pass'
p4847
tp4848
aa(lp4849
S'voldemort.utils.ConsistencyFixTest.testBadKeyReader'
p4850
a(S'pass'
p4851
S'pass'
p4852
S'pass'
p4853
S'pass'
p4854
tp4855
aa(lp4856
S'voldemort.utils.ConsistencyFixTest.testBadKeyOrphanReader'
p4857
a(S'pass'
p4858
S'pass'
p4859
S'pass'
p4860
S'pass'
p4861
tp4862
aa(lp4863
S'voldemort.utils.ConsistencyFixTest.testBadKeyResult'
p4864
a(S'pass'
p4865
S'pass'
p4866
S'pass'
p4867
S'pass'
p4868
tp4869
aa(lp4870
S'voldemort.utils.ConsistencyFixTest.testBadKeyWriter'
p4871
a(S'pass'
p4872
S'pass'
p4873
S'pass'
p4874
S'pass'
p4875
tp4876
aa(lp4877
S'voldemort.utils.ConsistencyFixTest.testConsistencyFixSetupTeardown'
p4878
a(S'pass'
p4879
S'pass'
p4880
S'pass'
p4881
S'pass'
p4882
tp4883
aa(lp4884
S'voldemort.utils.ConsistencyFixTest.testStats'
p4885
a(S'pass'
p4886
S'pass'
p4887
S'pass'
p4888
S'pass'
p4889
tp4890
aa(lp4891
S'voldemort.utils.ConsistencyFixTest.testStatus'
p4892
a(S'pass'
p4893
S'pass'
p4894
S'pass'
p4895
S'pass'
p4896
tp4897
aa(lp4898
S'voldemort.client.rebalance.NonZonedRebalanceBatchPlanTest.testClusterExpansion'
p4899
a(S'pass'
p4900
S'pass'
p4901
S'pass'
p4902
S'pass'
p4903
tp4904
aa(lp4905
S'voldemort.client.rebalance.NonZonedRebalanceBatchPlanTest.testDeleteLastNode'
p4906
a(S'pass'
p4907
S'pass'
p4908
S'pass'
p4909
S'pass'
p4910
tp4911
aa(lp4912
S'voldemort.client.rebalance.NonZonedRebalanceBatchPlanTest.testDeleteFirstNode'
p4913
a(S'pass'
p4914
S'pass'
p4915
S'pass'
p4916
S'pass'
p4917
tp4918
aa(lp4919
S'voldemort.client.rebalance.NonZonedRebalanceBatchPlanTest.testRebalanceDeletingMiddleNode'
p4920
a(S'pass'
p4921
S'pass'
p4922
S'pass'
p4923
S'pass'
p4924
tp4925
aa(lp4926
S'voldemort.client.rebalance.NonZonedRebalanceBatchPlanTest.testManyStoreClusterExpansion'
p4927
a(S'pass'
p4928
S'pass'
p4929
S'pass'
p4930
S'pass'
p4931
tp4932
aa(lp4933
S'voldemort.client.rebalance.NonZonedRebalanceBatchPlanTest.testRebalanceAllReplicasBeingMigrated'
p4934
a(S'pass'
p4935
S'pass'
p4936
S'pass'
p4937
S'pass'
p4938
tp4939
aa(lp4940
S'voldemort.client.rebalance.NonZonedRebalanceBatchPlanTest.testInsufficientNodes'
p4941
a(S'pass'
p4942
S'pass'
p4943
S'pass'
p4944
S'pass'
p4945
tp4946
aa(lp4947
S'voldemort.client.rebalance.NonZonedRebalanceBatchPlanTest.testShuffleNoop'
p4948
a(S'pass'
p4949
S'pass'
p4950
S'pass'
p4951
S'pass'
p4952
tp4953
aa(lp4954
S'voldemort.store.socket.ProtocolBuffersSocketStoreTest.testVeryLargeValues[0]'
p4955
a(S'pass'
p4956
S'pass'
p4957
S'pass'
p4958
S'pass'
p4959
tp4960
aa(lp4961
S'voldemort.store.socket.ProtocolBuffersSocketStoreTest.testThreadOverload[0]'
p4962
a(S'pass'
p4963
S'pass'
p4964
S'pass'
p4965
S'pass'
p4966
tp4967
aa(lp4968
S'voldemort.store.socket.ProtocolBuffersSocketStoreTest.testRepeatedClosedConnections[0]'
p4969
a(S'pass'
p4970
S'pass'
p4971
S'pass'
p4972
S'pass'
p4973
tp4974
aa(lp4975
S'voldemort.store.socket.ProtocolBuffersSocketStoreTest.testGetAllWithBigValueSizes[0]'
p4976
a(S'pass'
p4977
S'pass'
p4978
S'pass'
p4979
S'pass'
p4980
tp4981
aa(lp4982
S'voldemort.store.socket.ProtocolBuffersSocketStoreTest.testGetWithBigValueSizes[0]'
p4983
a(S'pass'
p4984
S'pass'
p4985
S'pass'
p4986
S'pass'
p4987
tp4988
aa(lp4989
S'voldemort.store.socket.ProtocolBuffersSocketStoreTest.testEmptyByteArray[0]'
p4990
a(S'pass'
p4991
S'pass'
p4992
S'pass'
p4993
S'pass'
p4994
tp4995
aa(lp4996
S'voldemort.store.socket.ProtocolBuffersSocketStoreTest.testNullKeys[0]'
p4997
a(S'pass'
p4998
S'pass'
p4999
S'pass'
p5000
S'pass'
p5001
tp5002
aa(lp5003
S'voldemort.store.socket.ProtocolBuffersSocketStoreTest.testPutNullValue[0]'
p5004
a(S'pass'
p5005
S'pass'
p5006
S'pass'
p5007
S'pass'
p5008
tp5009
aa(lp5010
S'voldemort.store.socket.ProtocolBuffersSocketStoreTest.testGetAndDeleteNonExistentKey[0]'
p5011
a(S'pass'
p5012
S'pass'
p5013
S'pass'
p5014
S'pass'
p5015
tp5016
aa(lp5017
S'voldemort.store.socket.ProtocolBuffersSocketStoreTest.testFetchedEqualsPut[0]'
p5018
a(S'pass'
p5019
S'pass'
p5020
S'pass'
p5021
S'pass'
p5022
tp5023
aa(lp5024
S'voldemort.store.socket.ProtocolBuffersSocketStoreTest.testVersionedPut[0]'
p5025
a(S'pass'
p5026
S'pass'
p5027
S'pass'
p5028
S'pass'
p5029
tp5030
aa(lp5031
S'voldemort.store.socket.ProtocolBuffersSocketStoreTest.testDelete[0]'
p5032
a(S'pass'
p5033
S'pass'
p5034
S'pass'
p5035
S'pass'
p5036
tp5037
aa(lp5038
S'voldemort.store.socket.ProtocolBuffersSocketStoreTest.testGetVersions[0]'
p5039
a(S'pass'
p5040
S'pass'
p5041
S'pass'
p5042
S'pass'
p5043
tp5044
aa(lp5045
S'voldemort.store.socket.ProtocolBuffersSocketStoreTest.testGetAll[0]'
p5046
a(S'pass'
p5047
S'pass'
p5048
S'pass'
p5049
S'pass'
p5050
tp5051
aa(lp5052
S'voldemort.store.socket.ProtocolBuffersSocketStoreTest.testGetAllWithAbsentKeys[0]'
p5053
a(S'pass'
p5054
S'pass'
p5055
S'pass'
p5056
S'pass'
p5057
tp5058
aa(lp5059
S'voldemort.store.socket.ProtocolBuffersSocketStoreTest.testCloseIsIdempotent[0]'
p5060
a(S'pass'
p5061
S'pass'
p5062
S'pass'
p5063
S'pass'
p5064
tp5065
aa(lp5066
S'voldemort.store.socket.ProtocolBuffersSocketStoreTest.testVeryLargeValues[1]'
p5067
a(S'pass'
p5068
S'pass'
p5069
S'pass'
p5070
S'pass'
p5071
tp5072
aa(lp5073
S'voldemort.store.socket.ProtocolBuffersSocketStoreTest.testThreadOverload[1]'
p5074
a(S'pass'
p5075
S'pass'
p5076
S'pass'
p5077
S'pass'
p5078
tp5079
aa(lp5080
S'voldemort.store.socket.ProtocolBuffersSocketStoreTest.testRepeatedClosedConnections[1]'
p5081
a(S'pass'
p5082
S'pass'
p5083
S'pass'
p5084
S'pass'
p5085
tp5086
aa(lp5087
S'voldemort.store.socket.ProtocolBuffersSocketStoreTest.testGetAllWithBigValueSizes[1]'
p5088
a(S'pass'
p5089
S'pass'
p5090
S'pass'
p5091
S'pass'
p5092
tp5093
aa(lp5094
S'voldemort.store.socket.ProtocolBuffersSocketStoreTest.testGetWithBigValueSizes[1]'
p5095
a(S'pass'
p5096
S'pass'
p5097
S'pass'
p5098
S'pass'
p5099
tp5100
aa(lp5101
S'voldemort.store.socket.ProtocolBuffersSocketStoreTest.testEmptyByteArray[1]'
p5102
a(S'pass'
p5103
S'pass'
p5104
S'pass'
p5105
S'pass'
p5106
tp5107
aa(lp5108
S'voldemort.store.socket.ProtocolBuffersSocketStoreTest.testNullKeys[1]'
p5109
a(S'pass'
p5110
S'pass'
p5111
S'pass'
p5112
S'pass'
p5113
tp5114
aa(lp5115
S'voldemort.store.socket.ProtocolBuffersSocketStoreTest.testPutNullValue[1]'
p5116
a(S'pass'
p5117
S'pass'
p5118
S'pass'
p5119
S'pass'
p5120
tp5121
aa(lp5122
S'voldemort.store.socket.ProtocolBuffersSocketStoreTest.testGetAndDeleteNonExistentKey[1]'
p5123
a(S'pass'
p5124
S'pass'
p5125
S'pass'
p5126
S'pass'
p5127
tp5128
aa(lp5129
S'voldemort.store.socket.ProtocolBuffersSocketStoreTest.testFetchedEqualsPut[1]'
p5130
a(S'pass'
p5131
S'pass'
p5132
S'pass'
p5133
S'pass'
p5134
tp5135
aa(lp5136
S'voldemort.store.socket.ProtocolBuffersSocketStoreTest.testVersionedPut[1]'
p5137
a(S'pass'
p5138
S'pass'
p5139
S'pass'
p5140
S'pass'
p5141
tp5142
aa(lp5143
S'voldemort.store.socket.ProtocolBuffersSocketStoreTest.testDelete[1]'
p5144
a(S'pass'
p5145
S'pass'
p5146
S'pass'
p5147
S'pass'
p5148
tp5149
aa(lp5150
S'voldemort.store.socket.ProtocolBuffersSocketStoreTest.testGetVersions[1]'
p5151
a(S'pass'
p5152
S'pass'
p5153
S'pass'
p5154
S'pass'
p5155
tp5156
aa(lp5157
S'voldemort.store.socket.ProtocolBuffersSocketStoreTest.testGetAll[1]'
p5158
a(S'pass'
p5159
S'pass'
p5160
S'pass'
p5161
S'pass'
p5162
tp5163
aa(lp5164
S'voldemort.store.socket.ProtocolBuffersSocketStoreTest.testGetAllWithAbsentKeys[1]'
p5165
a(S'pass'
p5166
S'pass'
p5167
S'pass'
p5168
S'pass'
p5169
tp5170
aa(lp5171
S'voldemort.store.socket.ProtocolBuffersSocketStoreTest.testCloseIsIdempotent[1]'
p5172
a(S'pass'
p5173
S'pass'
p5174
S'pass'
p5175
S'pass'
p5176
tp5177
aa(lp5178
S'voldemort.versioning.VectorClockInconsistencyResolverTest.testEmptyList'
p5179
a(S'pass'
p5180
S'pass'
p5181
S'pass'
p5182
S'pass'
p5183
tp5184
aa(lp5185
S'voldemort.versioning.VectorClockInconsistencyResolverTest.testDuplicatesResolve'
p5186
a(S'pass'
p5187
S'pass'
p5188
S'pass'
p5189
S'pass'
p5190
tp5191
aa(lp5192
S'voldemort.versioning.VectorClockInconsistencyResolverTest.testResolveNormal'
p5193
a(S'pass'
p5194
S'pass'
p5195
S'pass'
p5196
S'pass'
p5197
tp5198
aa(lp5199
S'voldemort.versioning.VectorClockInconsistencyResolverTest.testResolveConcurrent'
p5200
a(S'pass'
p5201
S'pass'
p5202
S'pass'
p5203
S'pass'
p5204
tp5205
aa(lp5206
S'voldemort.versioning.VectorClockInconsistencyResolverTest.testResolveLargerConcurrent'
p5207
a(S'pass'
p5208
S'pass'
p5209
S'pass'
p5210
S'pass'
p5211
tp5212
aa(lp5213
S'voldemort.versioning.VectorClockInconsistencyResolverTest.testResolveConcurrentPairWithLater'
p5214
a(S'pass'
p5215
S'pass'
p5216
S'pass'
p5217
S'pass'
p5218
tp5219
aa(lp5220
S'voldemort.client.SocketStoreClientFactoryTest.testTwoFactories[0]'
p5221
a(S'pass'
p5222
S'pass'
p5223
S'pass'
p5224
S'pass'
p5225
tp5226
aa(lp5227
S'voldemort.client.SocketStoreClientFactoryTest.testStoreClientCaching[0]'
p5228
a(S'pass'
p5229
S'pass'
p5230
S'pass'
p5231
S'pass'
p5232
tp5233
aa(lp5234
S'voldemort.client.SocketStoreClientFactoryTest.testBootstrapServerDown[0]'
p5235
a(S'pass'
p5236
S'pass'
p5237
S'pass'
p5238
S'pass'
p5239
tp5240
aa(lp5241
S'voldemort.client.SocketStoreClientFactoryTest.testUnknownStoreName[0]'
p5242
a(S'pass'
p5243
S'pass'
p5244
S'pass'
p5245
S'pass'
p5246
tp5247
aa(lp5248
S'voldemort.client.SocketStoreClientFactoryTest.testBootstrapFailoverSucceeds[0]'
p5249
a(S'pass'
p5250
S'pass'
p5251
S'pass'
p5252
S'pass'
p5253
tp5254
aa(lp5255
S'voldemort.client.SocketStoreClientFactoryTest.testInvalidZoneID[0]'
p5256
a(S'pass'
p5257
S'pass'
p5258
S'pass'
p5259
S'pass'
p5260
tp5261
aa(lp5262
S'voldemort.client.SocketStoreClientFactoryTest.testHappyCase[0]'
p5263
a(S'pass'
p5264
S'pass'
p5265
S'pass'
p5266
S'pass'
p5267
tp5268
aa(lp5269
S'voldemort.client.SocketStoreClientFactoryTest.testCustomSerializerFactory[0]'
p5270
a(S'pass'
p5271
S'pass'
p5272
S'pass'
p5273
S'pass'
p5274
tp5275
aa(lp5276
S'voldemort.client.SocketStoreClientFactoryTest.testTwoFactories[1]'
p5277
a(S'pass'
p5278
S'pass'
p5279
S'pass'
p5280
S'pass'
p5281
tp5282
aa(lp5283
S'voldemort.client.SocketStoreClientFactoryTest.testStoreClientCaching[1]'
p5284
a(S'pass'
p5285
S'pass'
p5286
S'pass'
p5287
S'pass'
p5288
tp5289
aa(lp5290
S'voldemort.client.SocketStoreClientFactoryTest.testBootstrapServerDown[1]'
p5291
a(S'pass'
p5292
S'pass'
p5293
S'pass'
p5294
S'pass'
p5295
tp5296
aa(lp5297
S'voldemort.client.SocketStoreClientFactoryTest.testUnknownStoreName[1]'
p5298
a(S'pass'
p5299
S'pass'
p5300
S'pass'
p5301
S'pass'
p5302
tp5303
aa(lp5304
S'voldemort.client.SocketStoreClientFactoryTest.testBootstrapFailoverSucceeds[1]'
p5305
a(S'pass'
p5306
S'pass'
p5307
S'pass'
p5308
S'pass'
p5309
tp5310
aa(lp5311
S'voldemort.client.SocketStoreClientFactoryTest.testInvalidZoneID[1]'
p5312
a(S'pass'
p5313
S'pass'
p5314
S'pass'
p5315
S'pass'
p5316
tp5317
aa(lp5318
S'voldemort.client.SocketStoreClientFactoryTest.testHappyCase[1]'
p5319
a(S'pass'
p5320
S'pass'
p5321
S'pass'
p5322
S'pass'
p5323
tp5324
aa(lp5325
S'voldemort.client.SocketStoreClientFactoryTest.testCustomSerializerFactory[1]'
p5326
a(S'pass'
p5327
S'pass'
p5328
S'pass'
p5329
S'pass'
p5330
tp5331
aa(lp5332
S'voldemort.client.SocketStoreClientFactoryTest.testTwoFactories[2]'
p5333
a(S'pass'
p5334
S'pass'
p5335
S'pass'
p5336
S'pass'
p5337
tp5338
aa(lp5339
S'voldemort.client.SocketStoreClientFactoryTest.testStoreClientCaching[2]'
p5340
a(S'pass'
p5341
S'pass'
p5342
S'pass'
p5343
S'pass'
p5344
tp5345
aa(lp5346
S'voldemort.client.SocketStoreClientFactoryTest.testBootstrapServerDown[2]'
p5347
a(S'pass'
p5348
S'pass'
p5349
S'pass'
p5350
S'pass'
p5351
tp5352
aa(lp5353
S'voldemort.client.SocketStoreClientFactoryTest.testUnknownStoreName[2]'
p5354
a(S'pass'
p5355
S'pass'
p5356
S'pass'
p5357
S'pass'
p5358
tp5359
aa(lp5360
S'voldemort.client.SocketStoreClientFactoryTest.testBootstrapFailoverSucceeds[2]'
p5361
a(S'pass'
p5362
S'pass'
p5363
S'pass'
p5364
S'pass'
p5365
tp5366
aa(lp5367
S'voldemort.client.SocketStoreClientFactoryTest.testInvalidZoneID[2]'
p5368
a(S'pass'
p5369
S'pass'
p5370
S'pass'
p5371
S'pass'
p5372
tp5373
aa(lp5374
S'voldemort.client.SocketStoreClientFactoryTest.testHappyCase[2]'
p5375
a(S'pass'
p5376
S'pass'
p5377
S'pass'
p5378
S'pass'
p5379
tp5380
aa(lp5381
S'voldemort.client.SocketStoreClientFactoryTest.testCustomSerializerFactory[2]'
p5382
a(S'pass'
p5383
S'pass'
p5384
S'pass'
p5385
S'pass'
p5386
tp5387
aa(lp5388
S'voldemort.client.SocketStoreClientFactoryTest.testTwoFactories[3]'
p5389
a(S'pass'
p5390
S'pass'
p5391
S'pass'
p5392
S'pass'
p5393
tp5394
aa(lp5395
S'voldemort.client.SocketStoreClientFactoryTest.testStoreClientCaching[3]'
p5396
a(S'pass'
p5397
S'pass'
p5398
S'pass'
p5399
S'pass'
p5400
tp5401
aa(lp5402
S'voldemort.client.SocketStoreClientFactoryTest.testBootstrapServerDown[3]'
p5403
a(S'pass'
p5404
S'pass'
p5405
S'pass'
p5406
S'pass'
p5407
tp5408
aa(lp5409
S'voldemort.client.SocketStoreClientFactoryTest.testUnknownStoreName[3]'
p5410
a(S'pass'
p5411
S'pass'
p5412
S'pass'
p5413
S'pass'
p5414
tp5415
aa(lp5416
S'voldemort.client.SocketStoreClientFactoryTest.testBootstrapFailoverSucceeds[3]'
p5417
a(S'pass'
p5418
S'pass'
p5419
S'pass'
p5420
S'pass'
p5421
tp5422
aa(lp5423
S'voldemort.client.SocketStoreClientFactoryTest.testInvalidZoneID[3]'
p5424
a(S'pass'
p5425
S'pass'
p5426
S'pass'
p5427
S'pass'
p5428
tp5429
aa(lp5430
S'voldemort.client.SocketStoreClientFactoryTest.testHappyCase[3]'
p5431
a(S'pass'
p5432
S'pass'
p5433
S'pass'
p5434
S'pass'
p5435
tp5436
aa(lp5437
S'voldemort.client.SocketStoreClientFactoryTest.testCustomSerializerFactory[3]'
p5438
a(S'pass'
p5439
S'pass'
p5440
S'pass'
p5441
S'pass'
p5442
tp5443
aa(lp5444
S'voldemort.store.readonly.ExternalSorterTest.testSorting'
p5445
a(S'pass'
p5446
S'pass'
p5447
S'pass'
p5448
S'pass'
p5449
tp5450
aa(lp5451
S'voldemort.store.readonly.chunk.DataFileChunkSetIteratorTest.testIterator'
p5452
a(S'pass'
p5453
S'pass'
p5454
S'pass'
p5455
S'pass'
p5456
tp5457
aa(lp5458
S'voldemort.store.readonly.ReadOnlyUtilsTest.testVersionParsing'
p5459
a(S'pass'
p5460
S'pass'
p5461
S'pass'
p5462
S'pass'
p5463
tp5464
aa(lp5465
S'voldemort.store.readonly.ReadOnlyUtilsTest.testFindKthVersionedDir'
p5466
a(S'pass'
p5467
S'pass'
p5468
S'pass'
p5469
S'pass'
p5470
tp5471
aa(lp5472
S'voldemort.store.readonly.ReadOnlyUtilsTest.testMinIntegerBug'
p5473
a(S'pass'
p5474
S'pass'
p5475
S'pass'
p5476
S'pass'
p5477
tp5478
aa(lp5479
S'voldemort.store.readonly.ReadOnlyUtilsTest.testGetPartitionReplicaTuple'
p5480
a(S'pass'
p5481
S'pass'
p5482
S'pass'
p5483
S'pass'
p5484
tp5485
aa(lp5486
S'voldemort.store.readonly.ReadOnlyUtilsTest.testIsFormatCorrect'
p5487
a(S'pass'
p5488
S'pass'
p5489
S'pass'
p5490
S'pass'
p5491
tp5492
aa(lp5493
S'voldemort.store.readonly.ReadOnlyUtilsTest.testGetChunkId'
p5494
a(S'pass'
p5495
S'pass'
p5496
S'pass'
p5497
S'pass'
p5498
tp5499
aa(lp5500
S'voldemort.cluster.failuredetector.ThresholdFailureDetectorTest.testTimeouts'
p5501
a(S'pass'
p5502
S'pass'
p5503
S'pass'
p5504
S'pass'
p5505
tp5506
aa(lp5507
S'voldemort.cluster.failuredetector.ThresholdFailureDetectorTest.testCliff'
p5508
a(S'pass'
p5509
S'pass'
p5510
S'pass'
p5511
S'pass'
p5512
tp5513
aa(lp5514
S'voldemort.cluster.failuredetector.ThresholdFailureDetectorTest.testStartOffDownComeBackOnline'
p5515
a(S'pass'
p5516
S'pass'
p5517
S'pass'
p5518
S'pass'
p5519
tp5520
aa(lp5521
S'voldemort.cluster.failuredetector.ThresholdFailureDetectorTest.testBorder'
p5522
a(S'pass'
p5523
S'pass'
p5524
S'pass'
p5525
S'pass'
p5526
tp5527
aa(lp5528
S'voldemort.cluster.failuredetector.ThresholdFailureDetectorTest.testChangeMetadata'
p5529
a(S'pass'
p5530
S'pass'
p5531
S'pass'
p5532
S'pass'
p5533
tp5534
aa(lp5535
S'voldemort.cluster.failuredetector.ThresholdFailureDetectorTest.testCatastrophicErrors'
p5536
a(S'pass'
p5537
S'pass'
p5538
S'pass'
p5539
S'pass'
p5540
tp5541
aa(lp5542
S'voldemort.cluster.failuredetector.ThresholdFailureDetectorTest.testInvalidNode'
p5543
a(S'skip'
p5544
S'skip'
p5545
S'skip'
p5546
S'skip'
p5547
tp5548
aa(lp5549
S'voldemort.cluster.failuredetector.ThresholdFailureDetectorTest.testGeneralJmx'
p5550
a(S'pass'
p5551
S'pass'
p5552
S'pass'
p5553
S'pass'
p5554
tp5555
aa(lp5556
S'voldemort.store.routed.ZoneAffinityGetTest.testAllUp[0]'
p5557
a(S'pass'
p5558
S'pass'
p5559
S'pass'
p5560
S'pass'
p5561
tp5562
aa(lp5563
S'voldemort.store.routed.ZoneAffinityGetTest.testLocalZoneDown[0]'
p5564
a(S'pass'
p5565
S'pass'
p5566
S'pass'
p5567
S'pass'
p5568
tp5569
aa(lp5570
S'voldemort.store.routed.ZoneAffinityGetTest.testLocalZonePartialDownInSufficientReads[0]'
p5571
a(S'pass'
p5572
S'pass'
p5573
S'pass'
p5574
S'pass'
p5575
tp5576
aa(lp5577
S'voldemort.store.routed.ZoneAffinityGetTest.testLocalZonePartialDownSufficientReads[0]'
p5578
a(S'pass'
p5579
S'pass'
p5580
S'pass'
p5581
S'pass'
p5582
tp5583
aa(lp5584
S'voldemort.store.routed.ZoneAffinityGetTest.testAllUp[1]'
p5585
a(S'pass'
p5586
S'pass'
p5587
S'pass'
p5588
S'pass'
p5589
tp5590
aa(lp5591
S'voldemort.store.routed.ZoneAffinityGetTest.testLocalZoneDown[1]'
p5592
a(S'pass'
p5593
S'pass'
p5594
S'pass'
p5595
S'pass'
p5596
tp5597
aa(lp5598
S'voldemort.store.routed.ZoneAffinityGetTest.testLocalZonePartialDownInSufficientReads[1]'
p5599
a(S'pass'
p5600
S'pass'
p5601
S'pass'
p5602
S'pass'
p5603
tp5604
aa(lp5605
S'voldemort.store.routed.ZoneAffinityGetTest.testLocalZonePartialDownSufficientReads[1]'
p5606
a(S'pass'
p5607
S'pass'
p5608
S'pass'
p5609
S'pass'
p5610
tp5611
aa(lp5612
S'voldemort.store.routed.ZoneAffinityGetTest.testAllUp[2]'
p5613
a(S'pass'
p5614
S'pass'
p5615
S'pass'
p5616
S'pass'
p5617
tp5618
aa(lp5619
S'voldemort.store.routed.ZoneAffinityGetTest.testLocalZoneDown[2]'
p5620
a(S'pass'
p5621
S'pass'
p5622
S'pass'
p5623
S'pass'
p5624
tp5625
aa(lp5626
S'voldemort.store.routed.ZoneAffinityGetTest.testLocalZonePartialDownInSufficientReads[2]'
p5627
a(S'pass'
p5628
S'pass'
p5629
S'pass'
p5630
S'pass'
p5631
tp5632
aa(lp5633
S'voldemort.store.routed.ZoneAffinityGetTest.testLocalZonePartialDownSufficientReads[2]'
p5634
a(S'pass'
p5635
S'pass'
p5636
S'pass'
p5637
S'pass'
p5638
tp5639
aa(lp5640
S'voldemort.store.routed.ZoneAffinityGetTest.testAllUp[3]'
p5641
a(S'pass'
p5642
S'pass'
p5643
S'pass'
p5644
S'pass'
p5645
tp5646
aa(lp5647
S'voldemort.store.routed.ZoneAffinityGetTest.testLocalZoneDown[3]'
p5648
a(S'pass'
p5649
S'pass'
p5650
S'pass'
p5651
S'pass'
p5652
tp5653
aa(lp5654
S'voldemort.store.routed.ZoneAffinityGetTest.testLocalZonePartialDownInSufficientReads[3]'
p5655
a(S'pass'
p5656
S'pass'
p5657
S'pass'
p5658
S'pass'
p5659
tp5660
aa(lp5661
S'voldemort.store.routed.ZoneAffinityGetTest.testLocalZonePartialDownSufficientReads[3]'
p5662
a(S'pass'
p5663
S'pass'
p5664
S'pass'
p5665
S'pass'
p5666
tp5667
aa(lp5668
S'voldemort.store.routed.ZoneAffinityGetTest.testAllUp[4]'
p5669
a(S'pass'
p5670
S'pass'
p5671
S'pass'
p5672
S'pass'
p5673
tp5674
aa(lp5675
S'voldemort.store.routed.ZoneAffinityGetTest.testLocalZoneDown[4]'
p5676
a(S'pass'
p5677
S'pass'
p5678
S'pass'
p5679
S'pass'
p5680
tp5681
aa(lp5682
S'voldemort.store.routed.ZoneAffinityGetTest.testLocalZonePartialDownInSufficientReads[4]'
p5683
a(S'pass'
p5684
S'pass'
p5685
S'pass'
p5686
S'pass'
p5687
tp5688
aa(lp5689
S'voldemort.store.routed.ZoneAffinityGetTest.testLocalZonePartialDownSufficientReads[4]'
p5690
a(S'pass'
p5691
S'pass'
p5692
S'pass'
p5693
S'pass'
p5694
tp5695
aa(lp5696
S'voldemort.store.readonly.SearchStrategyTest.findNothingInEmptyIndex[0]'
p5697
a(S'pass'
p5698
S'pass'
p5699
S'pass'
p5700
S'pass'
p5701
tp5702
aa(lp5703
S'voldemort.store.readonly.SearchStrategyTest.testSingleton[0]'
p5704
a(S'pass'
p5705
S'pass'
p5706
S'pass'
p5707
S'pass'
p5708
tp5709
aa(lp5710
S'voldemort.store.readonly.SearchStrategyTest.keyOutOfRange[0]'
p5711
a(S'pass'
p5712
S'pass'
p5713
S'pass'
p5714
S'pass'
p5715
tp5716
aa(lp5717
S'voldemort.store.readonly.SearchStrategyTest.locationIsEndPoint[0]'
p5718
a(S'pass'
p5719
S'pass'
p5720
S'pass'
p5721
S'pass'
p5722
tp5723
aa(lp5724
S'voldemort.store.readonly.SearchStrategyTest.testRandomValues[0]'
p5725
a(S'pass'
p5726
S'pass'
p5727
S'pass'
p5728
S'pass'
p5729
tp5730
aa(lp5731
S'voldemort.store.readonly.SearchStrategyTest.findNothingInEmptyIndex[1]'
p5732
a(S'pass'
p5733
S'pass'
p5734
S'pass'
p5735
S'pass'
p5736
tp5737
aa(lp5738
S'voldemort.store.readonly.SearchStrategyTest.testSingleton[1]'
p5739
a(S'pass'
p5740
S'pass'
p5741
S'pass'
p5742
S'pass'
p5743
tp5744
aa(lp5745
S'voldemort.store.readonly.SearchStrategyTest.keyOutOfRange[1]'
p5746
a(S'pass'
p5747
S'pass'
p5748
S'pass'
p5749
S'pass'
p5750
tp5751
aa(lp5752
S'voldemort.store.readonly.SearchStrategyTest.locationIsEndPoint[1]'
p5753
a(S'pass'
p5754
S'pass'
p5755
S'pass'
p5756
S'pass'
p5757
tp5758
aa(lp5759
S'voldemort.store.readonly.SearchStrategyTest.testRandomValues[1]'
p5760
a(S'pass'
p5761
S'pass'
p5762
S'pass'
p5763
S'pass'
p5764
tp5765
aa(lp5766
S'voldemort.store.readonly.SearchStrategyTest.findNothingInEmptyIndex[2]'
p5767
a(S'pass'
p5768
S'pass'
p5769
S'pass'
p5770
S'pass'
p5771
tp5772
aa(lp5773
S'voldemort.store.readonly.SearchStrategyTest.testSingleton[2]'
p5774
a(S'pass'
p5775
S'pass'
p5776
S'pass'
p5777
S'pass'
p5778
tp5779
aa(lp5780
S'voldemort.store.readonly.SearchStrategyTest.keyOutOfRange[2]'
p5781
a(S'pass'
p5782
S'pass'
p5783
S'pass'
p5784
S'pass'
p5785
tp5786
aa(lp5787
S'voldemort.store.readonly.SearchStrategyTest.locationIsEndPoint[2]'
p5788
a(S'pass'
p5789
S'pass'
p5790
S'pass'
p5791
S'pass'
p5792
tp5793
aa(lp5794
S'voldemort.store.readonly.SearchStrategyTest.testRandomValues[2]'
p5795
a(S'pass'
p5796
S'pass'
p5797
S'pass'
p5798
S'pass'
p5799
tp5800
aa(lp5801
S'voldemort.store.readonly.SearchStrategyTest.findNothingInEmptyIndex[3]'
p5802
a(S'pass'
p5803
S'pass'
p5804
S'pass'
p5805
S'pass'
p5806
tp5807
aa(lp5808
S'voldemort.store.readonly.SearchStrategyTest.testSingleton[3]'
p5809
a(S'pass'
p5810
S'pass'
p5811
S'pass'
p5812
S'pass'
p5813
tp5814
aa(lp5815
S'voldemort.store.readonly.SearchStrategyTest.keyOutOfRange[3]'
p5816
a(S'pass'
p5817
S'pass'
p5818
S'pass'
p5819
S'pass'
p5820
tp5821
aa(lp5822
S'voldemort.store.readonly.SearchStrategyTest.locationIsEndPoint[3]'
p5823
a(S'pass'
p5824
S'pass'
p5825
S'pass'
p5826
S'pass'
p5827
tp5828
aa(lp5829
S'voldemort.store.readonly.SearchStrategyTest.testRandomValues[3]'
p5830
a(S'pass'
p5831
S'pass'
p5832
S'pass'
p5833
S'pass'
p5834
tp5835
aa(lp5836
S'voldemort.store.views.ViewStorageEngineTest.testGetWithValueTransform'
p5837
a(S'pass'
p5838
S'pass'
p5839
S'pass'
p5840
S'pass'
p5841
tp5842
aa(lp5843
S'voldemort.store.views.ViewStorageEngineTest.testGetAll'
p5844
a(S'pass'
p5845
S'pass'
p5846
S'pass'
p5847
S'pass'
p5848
tp5849
aa(lp5850
S'voldemort.store.views.ViewStorageEngineTest.testPut'
p5851
a(S'pass'
p5852
S'pass'
p5853
S'pass'
p5854
S'pass'
p5855
tp5856
aa(lp5857
S'voldemort.store.views.ViewStorageEngineTest.testGetWithTransforms'
p5858
a(S'pass'
p5859
S'pass'
p5860
S'pass'
p5861
S'pass'
p5862
tp5863
aa(lp5864
S'voldemort.store.views.ViewStorageEngineTest.testPutWithTransforms'
p5865
a(S'pass'
p5866
S'pass'
p5867
S'pass'
p5868
S'pass'
p5869
tp5870
aa(lp5871
S'voldemort.store.views.ViewStorageEngineTest.testGetCapabilityThrowsNoSuchCapabilityException'
p5872
a(S'pass'
p5873
S'pass'
p5874
S'pass'
p5875
S'pass'
p5876
tp5877
aa(lp5878
S'voldemort.store.logging.LoggingStoreTest.testNullKeys'
p5879
a(S'pass'
p5880
S'pass'
p5881
S'pass'
p5882
S'pass'
p5883
tp5884
aa(lp5885
S'voldemort.store.logging.LoggingStoreTest.testPutNullValue'
p5886
a(S'pass'
p5887
S'pass'
p5888
S'pass'
p5889
S'pass'
p5890
tp5891
aa(lp5892
S'voldemort.store.logging.LoggingStoreTest.testGetAndDeleteNonExistentKey'
p5893
a(S'pass'
p5894
S'pass'
p5895
S'pass'
p5896
S'pass'
p5897
tp5898
aa(lp5899
S'voldemort.store.logging.LoggingStoreTest.testFetchedEqualsPut'
p5900
a(S'pass'
p5901
S'pass'
p5902
S'pass'
p5903
S'pass'
p5904
tp5905
aa(lp5906
S'voldemort.store.logging.LoggingStoreTest.testVersionedPut'
p5907
a(S'pass'
p5908
S'pass'
p5909
S'pass'
p5910
S'pass'
p5911
tp5912
aa(lp5913
S'voldemort.store.logging.LoggingStoreTest.testDelete'
p5914
a(S'pass'
p5915
S'pass'
p5916
S'pass'
p5917
S'pass'
p5918
tp5919
aa(lp5920
S'voldemort.store.logging.LoggingStoreTest.testGetVersions'
p5921
a(S'pass'
p5922
S'pass'
p5923
S'pass'
p5924
S'pass'
p5925
tp5926
aa(lp5927
S'voldemort.store.logging.LoggingStoreTest.testGetAll'
p5928
a(S'pass'
p5929
S'pass'
p5930
S'pass'
p5931
S'pass'
p5932
tp5933
aa(lp5934
S'voldemort.store.logging.LoggingStoreTest.testGetAllWithAbsentKeys'
p5935
a(S'pass'
p5936
S'pass'
p5937
S'pass'
p5938
S'pass'
p5939
tp5940
aa(lp5941
S'voldemort.store.logging.LoggingStoreTest.testCloseIsIdempotent'
p5942
a(S'pass'
p5943
S'pass'
p5944
S'pass'
p5945
S'pass'
p5946
tp5947
aa(lp5948
S'voldemort.serialization.thrift.ThriftSerializerTest.testSerializerRoundtrip'
p5949
a(S'pass'
p5950
S'pass'
p5951
S'pass'
p5952
S'pass'
p5953
tp5954
aa(lp5955
S'voldemort.serialization.thrift.ThriftSerializerTest.testEmptyObjSeserialization'
p5956
a(S'pass'
p5957
S'pass'
p5958
S'pass'
p5959
S'pass'
p5960
tp5961
aa(lp5962
S'voldemort.serialization.thrift.ThriftSerializerTest.testGetSerializer'
p5963
a(S'pass'
p5964
S'pass'
p5965
S'pass'
p5966
S'pass'
p5967
tp5968
aa(lp5969
S'voldemort.serialization.thrift.ThriftSerializerTest.testGetSerializer1'
p5970
a(S'pass'
p5971
S'pass'
p5972
S'pass'
p5973
S'pass'
p5974
tp5975
aa(lp5976
S'voldemort.serialization.thrift.ThriftSerializerTest.testGetSerializer2'
p5977
a(S'pass'
p5978
S'pass'
p5979
S'pass'
p5980
S'pass'
p5981
tp5982
aa(lp5983
S'voldemort.serialization.thrift.ThriftSerializerTest.testGetSerializer3'
p5984
a(S'pass'
p5985
S'pass'
p5986
S'pass'
p5987
S'pass'
p5988
tp5989
aa(lp5990
S'voldemort.serialization.thrift.ThriftSerializerTest.testGetSerializer4'
p5991
a(S'pass'
p5992
S'pass'
p5993
S'pass'
p5994
S'pass'
p5995
tp5996
aa(lp5997
S'voldemort.serialization.thrift.ThriftSerializerTest.testGetSerializer5'
p5998
a(S'pass'
p5999
S'pass'
p6000
S'pass'
p6001
S'pass'
p6002
tp6003
aa(lp6004
S'voldemort.serialization.thrift.ThriftSerializerTest.testGetSerializer6'
p6005
a(S'pass'
p6006
S'pass'
p6007
S'pass'
p6008
S'pass'
p6009
tp6010
aa(lp6011
S'voldemort.serialization.thrift.ThriftSerializerTest.testGetSerializer7'
p6012
a(S'pass'
p6013
S'pass'
p6014
S'pass'
p6015
S'pass'
p6016
tp6017
aa(lp6018
S'voldemort.store.stats.HistogramTest.test99thQuartile'
p6019
a(S'pass'
p6020
S'pass'
p6021
S'pass'
p6022
S'pass'
p6023
tp6024
aa(lp6025
S'voldemort.store.stats.HistogramTest.testResetHistogram'
p6026
a(S'pass'
p6027
S'pass'
p6028
S'pass'
p6029
S'pass'
p6030
tp6031
aa(lp6032
S'voldemort.store.stats.HistogramTest.testUpperBoundaryCondition'
p6033
a(S'pass'
p6034
S'pass'
p6035
S'pass'
p6036
S'pass'
p6037
tp6038
aa(lp6039
S'voldemort.store.stats.HistogramTest.testLowerBoundaryCondition'
p6040
a(S'pass'
p6041
S'pass'
p6042
S'pass'
p6043
S'pass'
p6044
tp6045
aa(lp6046
S'voldemort.store.stats.HistogramTest.testLowGranularity'
p6047
a(S'pass'
p6048
S'pass'
p6049
S'pass'
p6050
S'pass'
p6051
tp6052
aa(lp6053
S'voldemort.store.stats.HistogramTest.test50thQuartile'
p6054
a(S'pass'
p6055
S'pass'
p6056
S'pass'
p6057
S'pass'
p6058
tp6059
aa(lp6060
S'voldemort.store.stats.HistogramTest.test95thQuartile'
p6061
a(S'pass'
p6062
S'pass'
p6063
S'pass'
p6064
S'pass'
p6065
tp6066
aa(lp6067
S'voldemort.protocol.vold.VoldemortNativeV3BackwardCompatTest.testBackWardCompatibility'
p6068
a(S'pass'
p6069
S'pass'
p6070
S'pass'
p6071
S'pass'
p6072
tp6073
aa(lp6074
S'voldemort.server.storage.VersionedPutPruneJobTest.testPruneJob'
p6075
a(S'fail'
p6076
S'fail'
p6077
S'fail'
p6078
S'fail'
p6079
tp6080
aa(lp6081
S'voldemort.tools.admin.MetaOperationsTest.testMetaGet'
p6082
a(S'pass'
p6083
S'pass'
p6084
S'pass'
p6085
S'pass'
p6086
tp6087
aa(lp6088
S'voldemort.tools.admin.MetaOperationsTest.testMetaSet'
p6089
a(S'pass'
p6090
S'pass'
p6091
S'pass'
p6092
S'pass'
p6093
tp6094
aa(lp6095
S'voldemort.store.system.SystemStoreTest.testBasicStore[0]'
p6096
a(S'pass'
p6097
S'pass'
p6098
S'pass'
p6099
S'pass'
p6100
tp6101
aa(lp6102
S'voldemort.store.system.SystemStoreTest.testCustomClusterXmlStore[0]'
p6103
a(S'pass'
p6104
S'pass'
p6105
S'pass'
p6106
S'pass'
p6107
tp6108
aa(lp6109
S'voldemort.store.system.SystemStoreTest.testIllegalSystemStore[0]'
p6110
a(S'pass'
p6111
S'pass'
p6112
S'pass'
p6113
S'pass'
p6114
tp6115
aa(lp6116
S'voldemort.store.system.SystemStoreTest.testBasicStore[1]'
p6117
a(S'pass'
p6118
S'pass'
p6119
S'pass'
p6120
S'pass'
p6121
tp6122
aa(lp6123
S'voldemort.store.system.SystemStoreTest.testCustomClusterXmlStore[1]'
p6124
a(S'pass'
p6125
S'pass'
p6126
S'pass'
p6127
S'pass'
p6128
tp6129
aa(lp6130
S'voldemort.store.system.SystemStoreTest.testIllegalSystemStore[1]'
p6131
a(S'pass'
p6132
S'pass'
p6133
S'pass'
p6134
S'pass'
p6135
tp6136
aa(lp6137
S'voldemort.store.system.SystemStoreTest.testBasicStore[2]'
p6138
a(S'pass'
p6139
S'pass'
p6140
S'pass'
p6141
S'pass'
p6142
tp6143
aa(lp6144
S'voldemort.store.system.SystemStoreTest.testCustomClusterXmlStore[2]'
p6145
a(S'pass'
p6146
S'pass'
p6147
S'pass'
p6148
S'pass'
p6149
tp6150
aa(lp6151
S'voldemort.store.system.SystemStoreTest.testIllegalSystemStore[2]'
p6152
a(S'pass'
p6153
S'pass'
p6154
S'pass'
p6155
S'pass'
p6156
tp6157
aa(lp6158
S'voldemort.store.system.SystemStoreTest.testBasicStore[3]'
p6159
a(S'pass'
p6160
S'pass'
p6161
S'pass'
p6162
S'pass'
p6163
tp6164
aa(lp6165
S'voldemort.store.system.SystemStoreTest.testCustomClusterXmlStore[3]'
p6166
a(S'pass'
p6167
S'pass'
p6168
S'pass'
p6169
S'pass'
p6170
tp6171
aa(lp6172
S'voldemort.store.system.SystemStoreTest.testIllegalSystemStore[3]'
p6173
a(S'pass'
p6174
S'pass'
p6175
S'pass'
p6176
S'pass'
p6177
tp6178
aa(lp6179
S'voldemort.store.system.SystemStoreTest.testBasicStore[4]'
p6180
a(S'pass'
p6181
S'pass'
p6182
S'pass'
p6183
S'pass'
p6184
tp6185
aa(lp6186
S'voldemort.store.system.SystemStoreTest.testCustomClusterXmlStore[4]'
p6187
a(S'pass'
p6188
S'pass'
p6189
S'pass'
p6190
S'pass'
p6191
tp6192
aa(lp6193
S'voldemort.store.system.SystemStoreTest.testIllegalSystemStore[4]'
p6194
a(S'pass'
p6195
S'pass'
p6196
S'pass'
p6197
S'pass'
p6198
tp6199
aa(lp6200
S'voldemort.store.routed.ReadRepairerTest.testAllConcurrent[0]'
p6201
a(S'pass'
p6202
S'pass'
p6203
S'pass'
p6204
S'pass'
p6205
tp6206
aa(lp6207
S'voldemort.store.routed.ReadRepairerTest.testTwoAncestorsToOneSuccessor[0]'
p6208
a(S'pass'
p6209
S'pass'
p6210
S'pass'
p6211
S'pass'
p6212
tp6213
aa(lp6214
S'voldemort.store.routed.ReadRepairerTest.testOneAcestorToTwoSuccessors[0]'
p6215
a(S'pass'
p6216
S'pass'
p6217
S'pass'
p6218
S'pass'
p6219
tp6220
aa(lp6221
S'voldemort.store.routed.ReadRepairerTest.testEqualObsoleteVersions[0]'
p6222
a(S'pass'
p6223
S'pass'
p6224
S'pass'
p6225
S'pass'
p6226
tp6227
aa(lp6228
S'voldemort.store.routed.ReadRepairerTest.testDiamondPattern[0]'
p6229
a(S'pass'
p6230
S'pass'
p6231
S'pass'
p6232
S'pass'
p6233
tp6234
aa(lp6235
S'voldemort.store.routed.ReadRepairerTest.testConcurrentToOneDoesNotImplyConcurrentToAll[0]'
p6236
a(S'pass'
p6237
S'pass'
p6238
S'pass'
p6239
S'pass'
p6240
tp6241
aa(lp6242
S'voldemort.store.routed.ReadRepairerTest.testLotsOfVersions[0]'
p6243
a(S'pass'
p6244
S'pass'
p6245
S'pass'
p6246
S'pass'
p6247
tp6248
aa(lp6249
S'voldemort.store.routed.ReadRepairerTest.testConcurrentVersionsDoNotResultInRepairs[0]'
p6250
a(S'pass'
p6251
S'pass'
p6252
S'pass'
p6253
S'pass'
p6254
tp6255
aa(lp6256
S'voldemort.store.routed.ReadRepairerTest.testMultipleKeys[0]'
p6257
a(S'pass'
p6258
S'pass'
p6259
S'pass'
p6260
S'pass'
p6261
tp6262
aa(lp6263
S'voldemort.store.routed.ReadRepairerTest.testSingleValue[0]'
p6264
a(S'pass'
p6265
S'pass'
p6266
S'pass'
p6267
S'pass'
p6268
tp6269
aa(lp6270
S'voldemort.store.routed.ReadRepairerTest.testAllEqual[0]'
p6271
a(S'pass'
p6272
S'pass'
p6273
S'pass'
p6274
S'pass'
p6275
tp6276
aa(lp6277
S'voldemort.store.routed.ReadRepairerTest.testMissingKeysAreAddedToNodeWhenDoingReadRepair[0]'
p6278
a(S'pass'
p6279
S'pass'
p6280
S'pass'
p6281
S'pass'
p6282
tp6283
aa(lp6284
S'voldemort.store.routed.ReadRepairerTest.testNoDuplicates[0]'
p6285
a(S'pass'
p6286
S'pass'
p6287
S'pass'
p6288
S'pass'
p6289
tp6290
aa(lp6291
S'voldemort.store.routed.ReadRepairerTest.testSingleSuccessor[0]'
p6292
a(S'pass'
p6293
S'pass'
p6294
S'pass'
p6295
S'pass'
p6296
tp6297
aa(lp6298
S'voldemort.store.routed.ReadRepairerTest.testEmptyList[0]'
p6299
a(S'pass'
p6300
S'pass'
p6301
S'pass'
p6302
S'pass'
p6303
tp6304
aa(lp6305
S'voldemort.store.stats.StoreStatsJmxTest.getMaxLatenciesWork'
p6306
a(S'pass'
p6307
S'pass'
p6308
S'pass'
p6309
S'pass'
p6310
tp6311
aa(lp6312
S'voldemort.store.stats.StoreStatsJmxTest.maxAndAvgSizeOfValuesAreCalculatedCorrectly'
p6313
a(S'pass'
p6314
S'pass'
p6315
S'pass'
p6316
S'pass'
p6317
tp6318
aa(lp6319
S'voldemort.store.stats.StoreStatsJmxTest.maxAndAvgSizeOfKeysAreCalculatedCorrectly'
p6320
a(S'pass'
p6321
S'pass'
p6322
S'pass'
p6323
S'pass'
p6324
tp6325
aa(lp6326
S'voldemort.store.stats.StoreStatsJmxTest.testGetPercentageGetEmptyResponses'
p6327
a(S'pass'
p6328
S'pass'
p6329
S'pass'
p6330
S'pass'
p6331
tp6332
aa(lp6333
S'voldemort.store.stats.StoreStatsJmxTest.testGetPercentageGetAllEmptyResponses'
p6334
a(S'pass'
p6335
S'pass'
p6336
S'pass'
p6337
S'pass'
p6338
tp6339
aa(lp6340
S'voldemort.store.stats.StoreStatsJmxTest.testAverageGetAllCount'
p6341
a(S'pass'
p6342
S'pass'
p6343
S'pass'
p6344
S'pass'
p6345
tp6346
aa(lp6347
S'voldemort.store.stats.StoreStatsJmxTest.getThroughPutShouldBeSumOfThroughputOperations'
p6348
a(S'pass'
p6349
S'pass'
p6350
S'pass'
p6351
S'pass'
p6352
tp6353
aa(lp6354
S'voldemort.versioning.InconsistentDataExceptionTest.testGetVersions'
p6355
a(S'pass'
p6356
S'pass'
p6357
S'pass'
p6358
S'pass'
p6359
tp6360
aa(lp6361
S'voldemort.utils.pool.KeyedResourcePoolContentionTest.contendForResources'
p6362
a(S'pass'
p6363
S'pass'
p6364
S'pass'
p6365
S'pass'
p6366
tp6367
aa(lp6368
S'voldemort.client.rebalance.RebalanceMetadataConsistencyTest.testThreading'
p6369
a(S'pass'
p6370
S'pass'
p6371
S'pass'
p6372
S'pass'
p6373
tp6374
aa(lp6375
S'voldemort.store.stats.RequestCounterTest.testLargeValues'
p6376
a(S'pass'
p6377
S'pass'
p6378
S'pass'
p6379
S'pass'
p6380
tp6381
aa(lp6382
S'voldemort.store.stats.RequestCounterTest.test'
p6383
a(S'pass'
p6384
S'pass'
p6385
S'pass'
p6386
S'pass'
p6387
tp6388
aa(lp6389
S'voldemort.store.metadata.MetadataStoreTest.testSimpleGetAndPut'
p6390
a(S'pass'
p6391
S'pass'
p6392
S'pass'
p6393
S'pass'
p6394
tp6395
aa(lp6396
S'voldemort.store.metadata.MetadataStoreTest.testRepeatedPuts'
p6397
a(S'pass'
p6398
S'pass'
p6399
S'pass'
p6400
S'pass'
p6401
tp6402
aa(lp6403
S'voldemort.store.metadata.MetadataStoreTest.testObsoletePut'
p6404
a(S'pass'
p6405
S'pass'
p6406
S'pass'
p6407
S'pass'
p6408
tp6409
aa(lp6410
S'voldemort.store.metadata.MetadataStoreTest.testSynchronousPut'
p6411
a(S'pass'
p6412
S'pass'
p6413
S'pass'
p6414
S'pass'
p6415
tp6416
aa(lp6417
S'voldemort.store.metadata.MetadataStoreTest.testCleanAllStates'
p6418
a(S'pass'
p6419
S'pass'
p6420
S'pass'
p6421
S'pass'
p6422
tp6423
aa(lp6424
S'voldemort.store.metadata.MetadataStoreTest.testRebalacingSourceClusterXmlKey'
p6425
a(S'pass'
p6426
S'pass'
p6427
S'pass'
p6428
S'pass'
p6429
tp6430
aa(lp6431
S'voldemort.store.metadata.MetadataStoreTest.testUpdateStoresXmlWithIncompatibleAvroSchema'
p6432
a(S'pass'
p6433
S'pass'
p6434
S'pass'
p6435
S'pass'
p6436
tp6437
aa(lp6438
S'voldemort.store.routed.HintedHandoffSendHintTest.testHintedHandoff[0]'
p6439
a(S'pass'
p6440
S'pass'
p6441
S'pass'
p6442
S'pass'
p6443
tp6444
aa(lp6445
S'voldemort.store.routed.HintedHandoffSendHintTest.testHintedHandoff[1]'
p6446
a(S'pass'
p6447
S'pass'
p6448
S'pass'
p6449
S'pass'
p6450
tp6451
aa(lp6452
S'voldemort.store.routed.HintedHandoffSendHintTest.testHintedHandoff[2]'
p6453
a(S'pass'
p6454
S'pass'
p6455
S'pass'
p6456
S'pass'
p6457
tp6458
aa(lp6459
S'voldemort.store.routed.HintedHandoffSendHintTest.testHintedHandoff[3]'
p6460
a(S'pass'
p6461
S'pass'
p6462
S'pass'
p6463
S'pass'
p6464
tp6465
aa(lp6466
S'voldemort.store.routed.HintedHandoffSendHintTest.testHintedHandoff[4]'
p6467
a(S'pass'
p6468
S'pass'
p6469
S'pass'
p6470
S'pass'
p6471
tp6472
aa(lp6473
S'voldemort.store.routed.HintedHandoffSendHintTest.testHintedHandoff[5]'
p6474
a(S'pass'
p6475
S'pass'
p6476
S'pass'
p6477
S'pass'
p6478
tp6479
aa(lp6480
S'voldemort.store.routed.HintedHandoffSendHintTest.testHintedHandoff[6]'
p6481
a(S'pass'
p6482
S'pass'
p6483
S'pass'
p6484
S'pass'
p6485
tp6486
aa(lp6487
S'voldemort.store.routed.HintedHandoffSendHintTest.testHintedHandoff[7]'
p6488
a(S'pass'
p6489
S'pass'
p6490
S'pass'
p6491
S'pass'
p6492
tp6493
aa(lp6494
S'voldemort.store.routed.HintedHandoffSendHintTest.testHintedHandoff[8]'
p6495
a(S'pass'
p6496
S'pass'
p6497
S'pass'
p6498
S'pass'
p6499
tp6500
aa(lp6501
S'voldemort.store.routed.HintedHandoffSendHintTest.testHintedHandoff[9]'
p6502
a(S'pass'
p6503
S'pass'
p6504
S'pass'
p6505
S'pass'
p6506
tp6507
aa(lp6508
S'voldemort.store.routed.HintedHandoffSendHintTest.testHintedHandoff[10]'
p6509
a(S'pass'
p6510
S'pass'
p6511
S'pass'
p6512
S'pass'
p6513
tp6514
aa(lp6515
S'voldemort.store.routed.HintedHandoffSendHintTest.testHintedHandoff[11]'
p6516
a(S'pass'
p6517
S'pass'
p6518
S'pass'
p6519
S'pass'
p6520
tp6521
aa(lp6522
S'voldemort.store.routed.HintedHandoffSendHintTest.testHintedHandoff[12]'
p6523
a(S'pass'
p6524
S'pass'
p6525
S'pass'
p6526
S'pass'
p6527
tp6528
aa(lp6529
S'voldemort.store.routed.HintedHandoffSendHintTest.testHintedHandoff[13]'
p6530
a(S'pass'
p6531
S'pass'
p6532
S'pass'
p6533
S'pass'
p6534
tp6535
aa(lp6536
S'voldemort.store.configuration.ConfigurationStorageEngineTest.testDelete'
p6537
a(S'pass'
p6538
S'pass'
p6539
S'pass'
p6540
S'pass'
p6541
tp6542
aa(lp6543
S'voldemort.store.configuration.ConfigurationStorageEngineTest.testGetAndDeleteNonExistentKey'
p6544
a(S'pass'
p6545
S'pass'
p6546
S'pass'
p6547
S'pass'
p6548
tp6549
aa(lp6550
S'voldemort.store.configuration.ConfigurationStorageEngineTest.testNullKeys'
p6551
a(S'pass'
p6552
S'pass'
p6553
S'pass'
p6554
S'pass'
p6555
tp6556
aa(lp6557
S'voldemort.store.configuration.ConfigurationStorageEngineTest.testEmacsTempFile'
p6558
a(S'pass'
p6559
S'pass'
p6560
S'pass'
p6561
S'pass'
p6562
tp6563
aa(lp6564
S'voldemort.store.configuration.ConfigurationStorageEngineTest.testPutNullValue'
p6565
a(S'pass'
p6566
S'pass'
p6567
S'pass'
p6568
S'pass'
p6569
tp6570
aa(lp6571
S'voldemort.store.configuration.ConfigurationStorageEngineTest.testFetchedEqualsPut'
p6572
a(S'pass'
p6573
S'pass'
p6574
S'pass'
p6575
S'pass'
p6576
tp6577
aa(lp6578
S'voldemort.store.configuration.ConfigurationStorageEngineTest.testVersionedPut'
p6579
a(S'pass'
p6580
S'pass'
p6581
S'pass'
p6582
S'pass'
p6583
tp6584
aa(lp6585
S'voldemort.store.configuration.ConfigurationStorageEngineTest.testGetVersions'
p6586
a(S'pass'
p6587
S'pass'
p6588
S'pass'
p6589
S'pass'
p6590
tp6591
aa(lp6592
S'voldemort.store.configuration.ConfigurationStorageEngineTest.testGetAll'
p6593
a(S'pass'
p6594
S'pass'
p6595
S'pass'
p6596
S'pass'
p6597
tp6598
aa(lp6599
S'voldemort.store.configuration.ConfigurationStorageEngineTest.testGetAllWithAbsentKeys'
p6600
a(S'pass'
p6601
S'pass'
p6602
S'pass'
p6603
S'pass'
p6604
tp6605
aa(lp6606
S'voldemort.store.configuration.ConfigurationStorageEngineTest.testCloseIsIdempotent'
p6607
a(S'pass'
p6608
S'pass'
p6609
S'pass'
p6610
S'pass'
p6611
tp6612
aa(lp6613
S'voldemort.scheduled.BlockingSlopPusherTest.testPushNoSlop'
p6614
a(S'pass'
p6615
S'pass'
p6616
S'pass'
p6617
S'pass'
p6618
tp6619
aa(lp6620
S'voldemort.scheduled.BlockingSlopPusherTest.testPushSomeSlop'
p6621
a(S'pass'
p6622
S'pass'
p6623
S'pass'
p6624
S'pass'
p6625
tp6626
aa(lp6627
S'voldemort.scheduled.BlockingSlopPusherTest.testSlopWithFailingStore'
p6628
a(S'pass'
p6629
S'pass'
p6630
S'pass'
p6631
S'pass'
p6632
tp6633
aa(lp6634
S'voldemort.store.mysql.MysqlStorageEngineTest.testOpenNonExistantStoreCreatesTable'
p6635
a(S'fail'
p6636
S'fail'
p6637
S'fail'
p6638
S'fail'
p6639
tp6640
aa(lp6641
S'voldemort.store.mysql.MysqlStorageEngineTest.testPruneOnWrite'
p6642
a(S'fail'
p6643
S'fail'
p6644
S'fail'
p6645
S'fail'
p6646
tp6647
aa(lp6648
S'voldemort.store.mysql.MysqlStorageEngineTest.testTruncate'
p6649
a(S'fail'
p6650
S'fail'
p6651
S'fail'
p6652
S'fail'
p6653
tp6654
aa(lp6655
S'voldemort.store.mysql.MysqlStorageEngineTest.testMultiVersionPuts'
p6656
a(S'fail'
p6657
S'fail'
p6658
S'fail'
p6659
S'fail'
p6660
tp6661
aa(lp6662
S'voldemort.store.mysql.MysqlStorageEngineTest.testEntryIteration'
p6663
a(S'fail'
p6664
S'fail'
p6665
S'fail'
p6666
S'fail'
p6667
tp6668
aa(lp6669
S'voldemort.store.mysql.MysqlStorageEngineTest.testGetNoEntries'
p6670
a(S'fail'
p6671
S'fail'
p6672
S'fail'
p6673
S'fail'
p6674
tp6675
aa(lp6676
S'voldemort.store.mysql.MysqlStorageEngineTest.testGetNoKeys'
p6677
a(S'fail'
p6678
S'fail'
p6679
S'fail'
p6680
S'fail'
p6681
tp6682
aa(lp6683
S'voldemort.store.mysql.MysqlStorageEngineTest.testKeyIterationWithSerialization'
p6684
a(S'fail'
p6685
S'fail'
p6686
S'fail'
p6687
S'fail'
p6688
tp6689
aa(lp6690
S'voldemort.store.mysql.MysqlStorageEngineTest.testIterationWithSerialization'
p6691
a(S'fail'
p6692
S'fail'
p6693
S'fail'
p6694
S'fail'
p6695
tp6696
aa(lp6697
S'voldemort.store.mysql.MysqlStorageEngineTest.testEmptyByteArray'
p6698
a(S'fail'
p6699
S'fail'
p6700
S'fail'
p6701
S'fail'
p6702
tp6703
aa(lp6704
S'voldemort.store.mysql.MysqlStorageEngineTest.testNullKeys'
p6705
a(S'fail'
p6706
S'fail'
p6707
S'fail'
p6708
S'fail'
p6709
tp6710
aa(lp6711
S'voldemort.store.mysql.MysqlStorageEngineTest.testPutNullValue'
p6712
a(S'fail'
p6713
S'fail'
p6714
S'fail'
p6715
S'fail'
p6716
tp6717
aa(lp6718
S'voldemort.store.mysql.MysqlStorageEngineTest.testGetAndDeleteNonExistentKey'
p6719
a(S'fail'
p6720
S'fail'
p6721
S'fail'
p6722
S'fail'
p6723
tp6724
aa(lp6725
S'voldemort.store.mysql.MysqlStorageEngineTest.testFetchedEqualsPut'
p6726
a(S'fail'
p6727
S'fail'
p6728
S'fail'
p6729
S'fail'
p6730
tp6731
aa(lp6732
S'voldemort.store.mysql.MysqlStorageEngineTest.testVersionedPut'
p6733
a(S'fail'
p6734
S'fail'
p6735
S'fail'
p6736
S'fail'
p6737
tp6738
aa(lp6739
S'voldemort.store.mysql.MysqlStorageEngineTest.testDelete'
p6740
a(S'fail'
p6741
S'fail'
p6742
S'fail'
p6743
S'fail'
p6744
tp6745
aa(lp6746
S'voldemort.store.mysql.MysqlStorageEngineTest.testGetVersions'
p6747
a(S'fail'
p6748
S'fail'
p6749
S'fail'
p6750
S'fail'
p6751
tp6752
aa(lp6753
S'voldemort.store.mysql.MysqlStorageEngineTest.testGetAll'
p6754
a(S'fail'
p6755
S'fail'
p6756
S'fail'
p6757
S'fail'
p6758
tp6759
aa(lp6760
S'voldemort.store.mysql.MysqlStorageEngineTest.testGetAllWithAbsentKeys'
p6761
a(S'fail'
p6762
S'fail'
p6763
S'fail'
p6764
S'fail'
p6765
tp6766
aa(lp6767
S'voldemort.store.mysql.MysqlStorageEngineTest.testCloseIsIdempotent'
p6768
a(S'fail'
p6769
S'fail'
p6770
S'fail'
p6771
S'fail'
p6772
tp6773
aa(lp6774
S'voldemort.client.AdminServiceFailureTest.testWithStartFailure[0]'
p6775
a(S'pass'
p6776
S'pass'
p6777
S'pass'
p6778
S'pass'
p6779
tp6780
aa(lp6781
S'voldemort.client.AdminServiceFailureTest.testFailures[0]'
p6782
a(S'pass'
p6783
S'pass'
p6784
S'pass'
p6785
S'pass'
p6786
tp6787
aa(lp6788
S'voldemort.client.AdminServiceFailureTest.testWithStartFailure[1]'
p6789
a(S'pass'
p6790
S'pass'
p6791
S'pass'
p6792
S'pass'
p6793
tp6794
aa(lp6795
S'voldemort.client.AdminServiceFailureTest.testFailures[1]'
p6796
a(S'pass'
p6797
S'pass'
p6798
S'pass'
p6799
S'pass'
p6800
tp6801
aa(lp6802
S'voldemort.store.configuration.FileBackedCachingStorageEngineTest.testGetAll'
p6803
a(S'pass'
p6804
S'pass'
p6805
S'pass'
p6806
S'pass'
p6807
tp6808
aa(lp6809
S'voldemort.store.configuration.FileBackedCachingStorageEngineTest.testConcurrentWriteFailure'
p6810
a(S'pass'
p6811
S'pass'
p6812
S'pass'
p6813
S'pass'
p6814
tp6815
aa(lp6816
S'voldemort.store.configuration.FileBackedCachingStorageEngineTest.testDelete'
p6817
a(S'pass'
p6818
S'pass'
p6819
S'pass'
p6820
S'pass'
p6821
tp6822
aa(lp6823
S'voldemort.store.configuration.FileBackedCachingStorageEngineTest.testNullKeys'
p6824
a(S'pass'
p6825
S'pass'
p6826
S'pass'
p6827
S'pass'
p6828
tp6829
aa(lp6830
S'voldemort.store.configuration.FileBackedCachingStorageEngineTest.testPutNullValue'
p6831
a(S'pass'
p6832
S'pass'
p6833
S'pass'
p6834
S'pass'
p6835
tp6836
aa(lp6837
S'voldemort.store.configuration.FileBackedCachingStorageEngineTest.testGetAndDeleteNonExistentKey'
p6838
a(S'pass'
p6839
S'pass'
p6840
S'pass'
p6841
S'pass'
p6842
tp6843
aa(lp6844
S'voldemort.store.configuration.FileBackedCachingStorageEngineTest.testFetchedEqualsPut'
p6845
a(S'pass'
p6846
S'pass'
p6847
S'pass'
p6848
S'pass'
p6849
tp6850
aa(lp6851
S'voldemort.store.configuration.FileBackedCachingStorageEngineTest.testVersionedPut'
p6852
a(S'pass'
p6853
S'pass'
p6854
S'pass'
p6855
S'pass'
p6856
tp6857
aa(lp6858
S'voldemort.store.configuration.FileBackedCachingStorageEngineTest.testGetVersions'
p6859
a(S'pass'
p6860
S'pass'
p6861
S'pass'
p6862
S'pass'
p6863
tp6864
aa(lp6865
S'voldemort.store.configuration.FileBackedCachingStorageEngineTest.testGetAllWithAbsentKeys'
p6866
a(S'pass'
p6867
S'pass'
p6868
S'pass'
p6869
S'pass'
p6870
tp6871
aa(lp6872
S'voldemort.store.configuration.FileBackedCachingStorageEngineTest.testCloseIsIdempotent'
p6873
a(S'pass'
p6874
S'pass'
p6875
S'pass'
p6876
S'pass'
p6877
tp6878
aa(lp6879
S'voldemort.utils.pool.QueuedKeyedResourcePoolTest.testQueuingStats'
p6880
a(S'pass'
p6881
S'pass'
p6882
S'pass'
p6883
S'pass'
p6884
tp6885
aa(lp6886
S'voldemort.utils.pool.QueuedKeyedResourcePoolTest.testTimeoutInQueue'
p6887
a(S'pass'
p6888
S'pass'
p6889
S'pass'
p6890
S'pass'
p6891
tp6892
aa(lp6893
S'voldemort.utils.pool.QueuedKeyedResourcePoolTest.testExceptionInQueue'
p6894
a(S'pass'
p6895
S'pass'
p6896
S'pass'
p6897
S'pass'
p6898
tp6899
aa(lp6900
S'voldemort.utils.pool.QueuedKeyedResourcePoolTest.testQueuingOccurs'
p6901
a(S'pass'
p6902
S'pass'
p6903
S'pass'
p6904
S'pass'
p6905
tp6906
aa(lp6907
S'voldemort.utils.pool.QueuedKeyedResourcePoolTest.testResourcePoolConfigTimeout'
p6908
a(S'pass'
p6909
S'pass'
p6910
S'pass'
p6911
S'pass'
p6912
tp6913
aa(lp6914
S'voldemort.utils.pool.QueuedKeyedResourcePoolTest.testPoolingOccurs'
p6915
a(S'pass'
p6916
S'pass'
p6917
S'pass'
p6918
S'pass'
p6919
tp6920
aa(lp6921
S'voldemort.utils.pool.QueuedKeyedResourcePoolTest.testFullPoolBlocks'
p6922
a(S'pass'
p6923
S'pass'
p6924
S'pass'
p6925
S'pass'
p6926
tp6927
aa(lp6928
S'voldemort.utils.pool.QueuedKeyedResourcePoolTest.testExceptionOnDestroy'
p6929
a(S'pass'
p6930
S'pass'
p6931
S'pass'
p6932
S'pass'
p6933
tp6934
aa(lp6935
S'voldemort.utils.pool.QueuedKeyedResourcePoolTest.testExceptionOnCreate'
p6936
a(S'pass'
p6937
S'pass'
p6938
S'pass'
p6939
S'pass'
p6940
tp6941
aa(lp6942
S'voldemort.utils.pool.QueuedKeyedResourcePoolTest.repeatedCheckins'
p6943
a(S'pass'
p6944
S'pass'
p6945
S'pass'
p6946
S'pass'
p6947
tp6948
aa(lp6949
S'voldemort.utils.pool.QueuedKeyedResourcePoolTest.testExceptionOnFullCheckin'
p6950
a(S'pass'
p6951
S'pass'
p6952
S'pass'
p6953
S'pass'
p6954
tp6955
aa(lp6956
S'voldemort.utils.pool.QueuedKeyedResourcePoolTest.testCheckinExtraneousResource'
p6957
a(S'pass'
p6958
S'pass'
p6959
S'pass'
p6960
S'pass'
p6961
tp6962
aa(lp6963
S'voldemort.utils.pool.QueuedKeyedResourcePoolTest.testNeverCheckin'
p6964
a(S'pass'
p6965
S'pass'
p6966
S'pass'
p6967
S'pass'
p6968
tp6969
aa(lp6970
S'voldemort.utils.pool.QueuedKeyedResourcePoolTest.testInvalidIsDestroyed'
p6971
a(S'pass'
p6972
S'pass'
p6973
S'pass'
p6974
S'pass'
p6975
tp6976
aa(lp6977
S'voldemort.client.rebalance.AdminRebalanceTest.testRebalanceNodeRW[0]'
p6978
a(S'pass'
p6979
S'pass'
p6980
S'pass'
p6981
S'pass'
p6982
tp6983
aa(lp6984
S'voldemort.client.rebalance.AdminRebalanceTest.testRebalanceNodeRW2[0]'
p6985
a(S'pass'
p6986
S'pass'
p6987
S'pass'
p6988
S'pass'
p6989
tp6990
aa(lp6991
S'voldemort.client.rebalance.AdminRebalanceTest.testRebalanceNodeRO[0]'
p6992
a(S'pass'
p6993
S'pass'
p6994
S'pass'
p6995
S'pass'
p6996
tp6997
aa(lp6998
S'voldemort.client.rebalance.AdminRebalanceTest.testRebalanceNodeRORW[0]'
p6999
a(S'pass'
p7000
S'pass'
p7001
S'pass'
p7002
S'pass'
p7003
tp7004
aa(lp7005
S'voldemort.client.rebalance.AdminRebalanceTest.testRebalanceStateChange[0]'
p7006
a(S'pass'
p7007
S'pass'
p7008
S'pass'
p7009
S'pass'
p7010
tp7011
aa(lp7012
S'voldemort.client.rebalance.AdminRebalanceTest.testClusterAndRebalanceStateChange[0]'
p7013
a(S'pass'
p7014
S'pass'
p7015
S'pass'
p7016
S'pass'
p7017
tp7018
aa(lp7019
S'voldemort.client.rebalance.AdminRebalanceTest.testRebalanceNodeRW[1]'
p7020
a(S'pass'
p7021
S'pass'
p7022
S'pass'
p7023
S'pass'
p7024
tp7025
aa(lp7026
S'voldemort.client.rebalance.AdminRebalanceTest.testRebalanceNodeRW2[1]'
p7027
a(S'pass'
p7028
S'pass'
p7029
S'pass'
p7030
S'pass'
p7031
tp7032
aa(lp7033
S'voldemort.client.rebalance.AdminRebalanceTest.testRebalanceNodeRO[1]'
p7034
a(S'pass'
p7035
S'pass'
p7036
S'pass'
p7037
S'pass'
p7038
tp7039
aa(lp7040
S'voldemort.client.rebalance.AdminRebalanceTest.testRebalanceNodeRORW[1]'
p7041
a(S'pass'
p7042
S'pass'
p7043
S'pass'
p7044
S'pass'
p7045
tp7046
aa(lp7047
S'voldemort.client.rebalance.AdminRebalanceTest.testRebalanceStateChange[1]'
p7048
a(S'pass'
p7049
S'pass'
p7050
S'pass'
p7051
S'pass'
p7052
tp7053
aa(lp7054
S'voldemort.client.rebalance.AdminRebalanceTest.testClusterAndRebalanceStateChange[1]'
p7055
a(S'pass'
p7056
S'pass'
p7057
S'pass'
p7058
S'pass'
p7059
tp7060
aa(lp7061
S'voldemort.utils.ClusterForkLiftToolTest.testPrimaryResolvingForkLift'
p7062
a(S'pass'
p7063
S'pass'
p7064
S'pass'
p7065
S'pass'
p7066
tp7067
aa(lp7068
S'voldemort.utils.ClusterForkLiftToolTest.testGloballyResolvingForkLift'
p7069
a(S'pass'
p7070
S'pass'
p7071
S'pass'
p7072
S'pass'
p7073
tp7074
aa(lp7075
S'voldemort.utils.ClusterForkLiftToolTest.testForkLiftOverWrite'
p7076
a(S'pass'
p7077
S'pass'
p7078
S'pass'
p7079
S'pass'
p7080
tp7081
aa(lp7082
S'voldemort.utils.ClusterForkLiftToolTest.testNoresolutionForkLift'
p7083
a(S'pass'
p7084
S'pass'
p7085
S'pass'
p7086
S'pass'
p7087
tp7088
aa(lp7089
S'voldemort.utils.ClusterForkLiftToolTest.testTypeMismatch'
p7090
a(S'pass'
p7091
S'pass'
p7092
S'pass'
p7093
S'pass'
p7094
tp7095
aa(lp7096
S'voldemort.client.AdminServiceBasicTest.testReplicationMapping[0]'
p7097
a(S'pass'
p7098
S'pass'
p7099
S'pass'
p7100
S'pass'
p7101
tp7102
aa(lp7103
S'voldemort.client.AdminServiceBasicTest.testReplicationMappingWithNonContiguousZones[0]'
p7104
a(S'pass'
p7105
S'pass'
p7106
S'pass'
p7107
S'pass'
p7108
tp7109
aa(lp7110
S'voldemort.client.AdminServiceBasicTest.testReplicationMappingWithZonePreference[0]'
p7111
a(S'pass'
p7112
S'pass'
p7113
S'pass'
p7114
S'pass'
p7115
tp7116
aa(lp7117
S'voldemort.client.AdminServiceBasicTest.testReplicationMappingWithZonePreferenceWithNonContiguousZones[0]'
p7118
a(S'pass'
p7119
S'pass'
p7120
S'pass'
p7121
S'pass'
p7122
tp7123
aa(lp7124
S'voldemort.client.AdminServiceBasicTest.testDeleteStore[0]'
p7125
a(S'pass'
p7126
S'pass'
p7127
S'pass'
p7128
S'pass'
p7129
tp7130
aa(lp7131
S'voldemort.client.AdminServiceBasicTest.testStateTransitions[0]'
p7132
a(S'pass'
p7133
S'pass'
p7134
S'pass'
p7135
S'pass'
p7136
tp7137
aa(lp7138
S'voldemort.client.AdminServiceBasicTest.testDeletePartitionEntries[0]'
p7139
a(S'pass'
p7140
S'pass'
p7141
S'pass'
p7142
S'pass'
p7143
tp7144
aa(lp7145
S'voldemort.client.AdminServiceBasicTest.testFetchPartitionKeys[0]'
p7146
a(S'pass'
p7147
S'pass'
p7148
S'pass'
p7149
S'pass'
p7150
tp7151
aa(lp7152
S'voldemort.client.AdminServiceBasicTest.testFetchPartitionFiles[0]'
p7153
a(S'pass'
p7154
S'pass'
p7155
S'pass'
p7156
S'pass'
p7157
tp7158
aa(lp7159
S'voldemort.client.AdminServiceBasicTest.testGetROStorageFormat[0]'
p7160
a(S'pass'
p7161
S'pass'
p7162
S'pass'
p7163
S'pass'
p7164
tp7165
aa(lp7166
S'voldemort.client.AdminServiceBasicTest.testGetROVersions[0]'
p7167
a(S'pass'
p7168
S'pass'
p7169
S'pass'
p7170
S'pass'
p7171
tp7172
aa(lp7173
S'voldemort.client.AdminServiceBasicTest.testTruncate[0]'
p7174
a(S'pass'
p7175
S'pass'
p7176
S'pass'
p7177
S'pass'
p7178
tp7179
aa(lp7180
S'voldemort.client.AdminServiceBasicTest.testFetch[0]'
p7181
a(S'pass'
p7182
S'pass'
p7183
S'pass'
p7184
S'pass'
p7185
tp7186
aa(lp7187
S'voldemort.client.AdminServiceBasicTest.testQuery[0]'
p7188
a(S'pass'
p7189
S'pass'
p7190
S'pass'
p7191
S'pass'
p7192
tp7193
aa(lp7194
S'voldemort.client.AdminServiceBasicTest.testUpdateClusterMetadata[0]'
p7195
a(S'pass'
p7196
S'pass'
p7197
S'pass'
p7198
S'pass'
p7199
tp7200
aa(lp7201
S'voldemort.client.AdminServiceBasicTest.testFetchSingleStoreFromMetadataStore[0]'
p7202
a(S'pass'
p7203
S'pass'
p7204
S'pass'
p7205
S'pass'
p7206
tp7207
aa(lp7208
S'voldemort.client.AdminServiceBasicTest.testFetchAllStoresFromMetadataStore[0]'
p7209
a(S'pass'
p7210
S'pass'
p7211
S'pass'
p7212
S'pass'
p7213
tp7214
aa(lp7215
S'voldemort.client.AdminServiceBasicTest.testFetchSingleStoreFromAdminClient[0]'
p7216
a(S'pass'
p7217
S'pass'
p7218
S'pass'
p7219
S'pass'
p7220
tp7221
aa(lp7222
S'voldemort.client.AdminServiceBasicTest.testUpdateSingleStore[0]'
p7223
a(S'pass'
p7224
S'pass'
p7225
S'pass'
p7226
S'pass'
p7227
tp7228
aa(lp7229
S'voldemort.client.AdminServiceBasicTest.testUpdateMultipleStores[0]'
p7230
a(S'pass'
p7231
S'pass'
p7232
S'pass'
p7233
S'pass'
p7234
tp7235
aa(lp7236
S'voldemort.client.AdminServiceBasicTest.testFetchAndUpdateStoresMetadata[0]'
p7237
a(S'pass'
p7238
S'pass'
p7239
S'pass'
p7240
S'pass'
p7241
tp7242
aa(lp7243
S'voldemort.client.AdminServiceBasicTest.testAddStore[0]'
p7244
a(S'pass'
p7245
S'pass'
p7246
S'pass'
p7247
S'pass'
p7248
tp7249
aa(lp7250
S'voldemort.client.AdminServiceBasicTest.testUpdate[0]'
p7251
a(S'pass'
p7252
S'pass'
p7253
S'pass'
p7254
S'pass'
p7255
tp7256
aa(lp7257
S'voldemort.client.AdminServiceBasicTest.testUpdateTimeBased[0]'
p7258
a(S'pass'
p7259
S'pass'
p7260
S'pass'
p7261
S'pass'
p7262
tp7263
aa(lp7264
S'voldemort.client.AdminServiceBasicTest.testUpdateSlops[0]'
p7265
a(S'pass'
p7266
S'pass'
p7267
S'pass'
p7268
S'pass'
p7269
tp7270
aa(lp7271
S'voldemort.client.AdminServiceBasicTest.testRecoverData[0]'
p7272
a(S'pass'
p7273
S'pass'
p7274
S'pass'
p7275
S'pass'
p7276
tp7277
aa(lp7278
S'voldemort.client.AdminServiceBasicTest.testFetchAndUpdateRW[0]'
p7279
a(S'pass'
p7280
S'pass'
p7281
S'pass'
p7282
S'pass'
p7283
tp7284
aa(lp7285
S'voldemort.client.AdminServiceBasicTest.testQuotaOpsForNode[0]'
p7286
a(S'pass'
p7287
S'pass'
p7288
S'pass'
p7289
S'pass'
p7290
tp7291
aa(lp7292
S'voldemort.client.AdminServiceBasicTest.testRebalanceQuota[0]'
p7293
a(S'pass'
p7294
S'pass'
p7295
S'pass'
p7296
S'pass'
p7297
tp7298
aa(lp7299
S'voldemort.client.AdminServiceBasicTest.testReplicationMapping[1]'
p7300
a(S'pass'
p7301
S'pass'
p7302
S'pass'
p7303
S'pass'
p7304
tp7305
aa(lp7306
S'voldemort.client.AdminServiceBasicTest.testReplicationMappingWithNonContiguousZones[1]'
p7307
a(S'pass'
p7308
S'pass'
p7309
S'pass'
p7310
S'pass'
p7311
tp7312
aa(lp7313
S'voldemort.client.AdminServiceBasicTest.testReplicationMappingWithZonePreference[1]'
p7314
a(S'pass'
p7315
S'pass'
p7316
S'pass'
p7317
S'pass'
p7318
tp7319
aa(lp7320
S'voldemort.client.AdminServiceBasicTest.testReplicationMappingWithZonePreferenceWithNonContiguousZones[1]'
p7321
a(S'pass'
p7322
S'pass'
p7323
S'pass'
p7324
S'pass'
p7325
tp7326
aa(lp7327
S'voldemort.client.AdminServiceBasicTest.testDeleteStore[1]'
p7328
a(S'pass'
p7329
S'pass'
p7330
S'pass'
p7331
S'pass'
p7332
tp7333
aa(lp7334
S'voldemort.client.AdminServiceBasicTest.testStateTransitions[1]'
p7335
a(S'pass'
p7336
S'pass'
p7337
S'pass'
p7338
S'pass'
p7339
tp7340
aa(lp7341
S'voldemort.client.AdminServiceBasicTest.testDeletePartitionEntries[1]'
p7342
a(S'pass'
p7343
S'pass'
p7344
S'pass'
p7345
S'pass'
p7346
tp7347
aa(lp7348
S'voldemort.client.AdminServiceBasicTest.testFetchPartitionKeys[1]'
p7349
a(S'pass'
p7350
S'pass'
p7351
S'pass'
p7352
S'pass'
p7353
tp7354
aa(lp7355
S'voldemort.client.AdminServiceBasicTest.testFetchPartitionFiles[1]'
p7356
a(S'pass'
p7357
S'pass'
p7358
S'pass'
p7359
S'pass'
p7360
tp7361
aa(lp7362
S'voldemort.client.AdminServiceBasicTest.testGetROStorageFormat[1]'
p7363
a(S'pass'
p7364
S'pass'
p7365
S'pass'
p7366
S'pass'
p7367
tp7368
aa(lp7369
S'voldemort.client.AdminServiceBasicTest.testGetROVersions[1]'
p7370
a(S'pass'
p7371
S'pass'
p7372
S'pass'
p7373
S'pass'
p7374
tp7375
aa(lp7376
S'voldemort.client.AdminServiceBasicTest.testTruncate[1]'
p7377
a(S'pass'
p7378
S'pass'
p7379
S'pass'
p7380
S'pass'
p7381
tp7382
aa(lp7383
S'voldemort.client.AdminServiceBasicTest.testFetch[1]'
p7384
a(S'pass'
p7385
S'pass'
p7386
S'pass'
p7387
S'pass'
p7388
tp7389
aa(lp7390
S'voldemort.client.AdminServiceBasicTest.testQuery[1]'
p7391
a(S'pass'
p7392
S'pass'
p7393
S'pass'
p7394
S'pass'
p7395
tp7396
aa(lp7397
S'voldemort.client.AdminServiceBasicTest.testUpdateClusterMetadata[1]'
p7398
a(S'pass'
p7399
S'pass'
p7400
S'pass'
p7401
S'pass'
p7402
tp7403
aa(lp7404
S'voldemort.client.AdminServiceBasicTest.testFetchSingleStoreFromMetadataStore[1]'
p7405
a(S'pass'
p7406
S'pass'
p7407
S'pass'
p7408
S'pass'
p7409
tp7410
aa(lp7411
S'voldemort.client.AdminServiceBasicTest.testFetchAllStoresFromMetadataStore[1]'
p7412
a(S'pass'
p7413
S'pass'
p7414
S'pass'
p7415
S'pass'
p7416
tp7417
aa(lp7418
S'voldemort.client.AdminServiceBasicTest.testFetchSingleStoreFromAdminClient[1]'
p7419
a(S'pass'
p7420
S'pass'
p7421
S'pass'
p7422
S'pass'
p7423
tp7424
aa(lp7425
S'voldemort.client.AdminServiceBasicTest.testUpdateSingleStore[1]'
p7426
a(S'pass'
p7427
S'pass'
p7428
S'pass'
p7429
S'pass'
p7430
tp7431
aa(lp7432
S'voldemort.client.AdminServiceBasicTest.testUpdateMultipleStores[1]'
p7433
a(S'pass'
p7434
S'pass'
p7435
S'pass'
p7436
S'pass'
p7437
tp7438
aa(lp7439
S'voldemort.client.AdminServiceBasicTest.testFetchAndUpdateStoresMetadata[1]'
p7440
a(S'pass'
p7441
S'pass'
p7442
S'pass'
p7443
S'pass'
p7444
tp7445
aa(lp7446
S'voldemort.client.AdminServiceBasicTest.testAddStore[1]'
p7447
a(S'pass'
p7448
S'pass'
p7449
S'pass'
p7450
S'pass'
p7451
tp7452
aa(lp7453
S'voldemort.client.AdminServiceBasicTest.testUpdate[1]'
p7454
a(S'pass'
p7455
S'pass'
p7456
S'pass'
p7457
S'pass'
p7458
tp7459
aa(lp7460
S'voldemort.client.AdminServiceBasicTest.testUpdateTimeBased[1]'
p7461
a(S'pass'
p7462
S'pass'
p7463
S'pass'
p7464
S'pass'
p7465
tp7466
aa(lp7467
S'voldemort.client.AdminServiceBasicTest.testUpdateSlops[1]'
p7468
a(S'pass'
p7469
S'pass'
p7470
S'pass'
p7471
S'pass'
p7472
tp7473
aa(lp7474
S'voldemort.client.AdminServiceBasicTest.testRecoverData[1]'
p7475
a(S'pass'
p7476
S'pass'
p7477
S'pass'
p7478
S'pass'
p7479
tp7480
aa(lp7481
S'voldemort.client.AdminServiceBasicTest.testFetchAndUpdateRW[1]'
p7482
a(S'pass'
p7483
S'pass'
p7484
S'pass'
p7485
S'pass'
p7486
tp7487
aa(lp7488
S'voldemort.client.AdminServiceBasicTest.testQuotaOpsForNode[1]'
p7489
a(S'pass'
p7490
S'pass'
p7491
S'pass'
p7492
S'pass'
p7493
tp7494
aa(lp7495
S'voldemort.client.AdminServiceBasicTest.testRebalanceQuota[1]'
p7496
a(S'pass'
p7497
S'pass'
p7498
S'pass'
p7499
S'pass'
p7500
tp7501
aa(lp7502
S'voldemort.client.AdminServiceBasicTest.testReplicationMapping[2]'
p7503
a(S'pass'
p7504
S'pass'
p7505
S'pass'
p7506
S'pass'
p7507
tp7508
aa(lp7509
S'voldemort.client.AdminServiceBasicTest.testReplicationMappingWithNonContiguousZones[2]'
p7510
a(S'pass'
p7511
S'pass'
p7512
S'pass'
p7513
S'pass'
p7514
tp7515
aa(lp7516
S'voldemort.client.AdminServiceBasicTest.testReplicationMappingWithZonePreference[2]'
p7517
a(S'pass'
p7518
S'pass'
p7519
S'pass'
p7520
S'pass'
p7521
tp7522
aa(lp7523
S'voldemort.client.AdminServiceBasicTest.testReplicationMappingWithZonePreferenceWithNonContiguousZones[2]'
p7524
a(S'pass'
p7525
S'pass'
p7526
S'pass'
p7527
S'pass'
p7528
tp7529
aa(lp7530
S'voldemort.client.AdminServiceBasicTest.testDeleteStore[2]'
p7531
a(S'pass'
p7532
S'pass'
p7533
S'pass'
p7534
S'pass'
p7535
tp7536
aa(lp7537
S'voldemort.client.AdminServiceBasicTest.testStateTransitions[2]'
p7538
a(S'pass'
p7539
S'pass'
p7540
S'pass'
p7541
S'pass'
p7542
tp7543
aa(lp7544
S'voldemort.client.AdminServiceBasicTest.testDeletePartitionEntries[2]'
p7545
a(S'pass'
p7546
S'pass'
p7547
S'pass'
p7548
S'pass'
p7549
tp7550
aa(lp7551
S'voldemort.client.AdminServiceBasicTest.testFetchPartitionKeys[2]'
p7552
a(S'pass'
p7553
S'pass'
p7554
S'pass'
p7555
S'pass'
p7556
tp7557
aa(lp7558
S'voldemort.client.AdminServiceBasicTest.testFetchPartitionFiles[2]'
p7559
a(S'pass'
p7560
S'pass'
p7561
S'pass'
p7562
S'pass'
p7563
tp7564
aa(lp7565
S'voldemort.client.AdminServiceBasicTest.testGetROStorageFormat[2]'
p7566
a(S'pass'
p7567
S'pass'
p7568
S'pass'
p7569
S'pass'
p7570
tp7571
aa(lp7572
S'voldemort.client.AdminServiceBasicTest.testGetROVersions[2]'
p7573
a(S'pass'
p7574
S'pass'
p7575
S'pass'
p7576
S'pass'
p7577
tp7578
aa(lp7579
S'voldemort.client.AdminServiceBasicTest.testTruncate[2]'
p7580
a(S'pass'
p7581
S'pass'
p7582
S'pass'
p7583
S'pass'
p7584
tp7585
aa(lp7586
S'voldemort.client.AdminServiceBasicTest.testFetch[2]'
p7587
a(S'pass'
p7588
S'pass'
p7589
S'pass'
p7590
S'pass'
p7591
tp7592
aa(lp7593
S'voldemort.client.AdminServiceBasicTest.testQuery[2]'
p7594
a(S'pass'
p7595
S'pass'
p7596
S'pass'
p7597
S'pass'
p7598
tp7599
aa(lp7600
S'voldemort.client.AdminServiceBasicTest.testUpdateClusterMetadata[2]'
p7601
a(S'pass'
p7602
S'pass'
p7603
S'pass'
p7604
S'pass'
p7605
tp7606
aa(lp7607
S'voldemort.client.AdminServiceBasicTest.testFetchSingleStoreFromMetadataStore[2]'
p7608
a(S'pass'
p7609
S'pass'
p7610
S'pass'
p7611
S'pass'
p7612
tp7613
aa(lp7614
S'voldemort.client.AdminServiceBasicTest.testFetchAllStoresFromMetadataStore[2]'
p7615
a(S'pass'
p7616
S'pass'
p7617
S'pass'
p7618
S'pass'
p7619
tp7620
aa(lp7621
S'voldemort.client.AdminServiceBasicTest.testFetchSingleStoreFromAdminClient[2]'
p7622
a(S'pass'
p7623
S'pass'
p7624
S'pass'
p7625
S'pass'
p7626
tp7627
aa(lp7628
S'voldemort.client.AdminServiceBasicTest.testUpdateSingleStore[2]'
p7629
a(S'pass'
p7630
S'pass'
p7631
S'pass'
p7632
S'pass'
p7633
tp7634
aa(lp7635
S'voldemort.client.AdminServiceBasicTest.testUpdateMultipleStores[2]'
p7636
a(S'pass'
p7637
S'pass'
p7638
S'pass'
p7639
S'pass'
p7640
tp7641
aa(lp7642
S'voldemort.client.AdminServiceBasicTest.testFetchAndUpdateStoresMetadata[2]'
p7643
a(S'pass'
p7644
S'pass'
p7645
S'pass'
p7646
S'pass'
p7647
tp7648
aa(lp7649
S'voldemort.client.AdminServiceBasicTest.testAddStore[2]'
p7650
a(S'pass'
p7651
S'pass'
p7652
S'pass'
p7653
S'pass'
p7654
tp7655
aa(lp7656
S'voldemort.client.AdminServiceBasicTest.testUpdate[2]'
p7657
a(S'pass'
p7658
S'pass'
p7659
S'pass'
p7660
S'pass'
p7661
tp7662
aa(lp7663
S'voldemort.client.AdminServiceBasicTest.testUpdateTimeBased[2]'
p7664
a(S'pass'
p7665
S'pass'
p7666
S'pass'
p7667
S'pass'
p7668
tp7669
aa(lp7670
S'voldemort.client.AdminServiceBasicTest.testUpdateSlops[2]'
p7671
a(S'pass'
p7672
S'pass'
p7673
S'pass'
p7674
S'pass'
p7675
tp7676
aa(lp7677
S'voldemort.client.AdminServiceBasicTest.testRecoverData[2]'
p7678
a(S'pass'
p7679
S'pass'
p7680
S'pass'
p7681
S'pass'
p7682
tp7683
aa(lp7684
S'voldemort.client.AdminServiceBasicTest.testFetchAndUpdateRW[2]'
p7685
a(S'pass'
p7686
S'pass'
p7687
S'pass'
p7688
S'pass'
p7689
tp7690
aa(lp7691
S'voldemort.client.AdminServiceBasicTest.testQuotaOpsForNode[2]'
p7692
a(S'pass'
p7693
S'pass'
p7694
S'pass'
p7695
S'pass'
p7696
tp7697
aa(lp7698
S'voldemort.client.AdminServiceBasicTest.testRebalanceQuota[2]'
p7699
a(S'pass'
p7700
S'pass'
p7701
S'pass'
p7702
S'pass'
p7703
tp7704
aa(lp7705
S'voldemort.client.AdminServiceBasicTest.testReplicationMapping[3]'
p7706
a(S'pass'
p7707
S'pass'
p7708
S'pass'
p7709
S'pass'
p7710
tp7711
aa(lp7712
S'voldemort.client.AdminServiceBasicTest.testReplicationMappingWithNonContiguousZones[3]'
p7713
a(S'pass'
p7714
S'pass'
p7715
S'pass'
p7716
S'pass'
p7717
tp7718
aa(lp7719
S'voldemort.client.AdminServiceBasicTest.testReplicationMappingWithZonePreference[3]'
p7720
a(S'pass'
p7721
S'pass'
p7722
S'pass'
p7723
S'pass'
p7724
tp7725
aa(lp7726
S'voldemort.client.AdminServiceBasicTest.testReplicationMappingWithZonePreferenceWithNonContiguousZones[3]'
p7727
a(S'pass'
p7728
S'pass'
p7729
S'pass'
p7730
S'pass'
p7731
tp7732
aa(lp7733
S'voldemort.client.AdminServiceBasicTest.testDeleteStore[3]'
p7734
a(S'pass'
p7735
S'pass'
p7736
S'pass'
p7737
S'pass'
p7738
tp7739
aa(lp7740
S'voldemort.client.AdminServiceBasicTest.testStateTransitions[3]'
p7741
a(S'pass'
p7742
S'pass'
p7743
S'pass'
p7744
S'pass'
p7745
tp7746
aa(lp7747
S'voldemort.client.AdminServiceBasicTest.testDeletePartitionEntries[3]'
p7748
a(S'pass'
p7749
S'pass'
p7750
S'pass'
p7751
S'pass'
p7752
tp7753
aa(lp7754
S'voldemort.client.AdminServiceBasicTest.testFetchPartitionKeys[3]'
p7755
a(S'pass'
p7756
S'pass'
p7757
S'pass'
p7758
S'pass'
p7759
tp7760
aa(lp7761
S'voldemort.client.AdminServiceBasicTest.testFetchPartitionFiles[3]'
p7762
a(S'pass'
p7763
S'pass'
p7764
S'pass'
p7765
S'pass'
p7766
tp7767
aa(lp7768
S'voldemort.client.AdminServiceBasicTest.testGetROStorageFormat[3]'
p7769
a(S'pass'
p7770
S'pass'
p7771
S'pass'
p7772
S'pass'
p7773
tp7774
aa(lp7775
S'voldemort.client.AdminServiceBasicTest.testGetROVersions[3]'
p7776
a(S'pass'
p7777
S'pass'
p7778
S'pass'
p7779
S'pass'
p7780
tp7781
aa(lp7782
S'voldemort.client.AdminServiceBasicTest.testTruncate[3]'
p7783
a(S'pass'
p7784
S'pass'
p7785
S'pass'
p7786
S'pass'
p7787
tp7788
aa(lp7789
S'voldemort.client.AdminServiceBasicTest.testFetch[3]'
p7790
a(S'pass'
p7791
S'pass'
p7792
S'pass'
p7793
S'pass'
p7794
tp7795
aa(lp7796
S'voldemort.client.AdminServiceBasicTest.testQuery[3]'
p7797
a(S'pass'
p7798
S'pass'
p7799
S'pass'
p7800
S'pass'
p7801
tp7802
aa(lp7803
S'voldemort.client.AdminServiceBasicTest.testUpdateClusterMetadata[3]'
p7804
a(S'pass'
p7805
S'pass'
p7806
S'pass'
p7807
S'pass'
p7808
tp7809
aa(lp7810
S'voldemort.client.AdminServiceBasicTest.testFetchSingleStoreFromMetadataStore[3]'
p7811
a(S'pass'
p7812
S'pass'
p7813
S'pass'
p7814
S'pass'
p7815
tp7816
aa(lp7817
S'voldemort.client.AdminServiceBasicTest.testFetchAllStoresFromMetadataStore[3]'
p7818
a(S'pass'
p7819
S'pass'
p7820
S'pass'
p7821
S'pass'
p7822
tp7823
aa(lp7824
S'voldemort.client.AdminServiceBasicTest.testFetchSingleStoreFromAdminClient[3]'
p7825
a(S'pass'
p7826
S'pass'
p7827
S'pass'
p7828
S'pass'
p7829
tp7830
aa(lp7831
S'voldemort.client.AdminServiceBasicTest.testUpdateSingleStore[3]'
p7832
a(S'pass'
p7833
S'pass'
p7834
S'pass'
p7835
S'pass'
p7836
tp7837
aa(lp7838
S'voldemort.client.AdminServiceBasicTest.testUpdateMultipleStores[3]'
p7839
a(S'pass'
p7840
S'pass'
p7841
S'pass'
p7842
S'pass'
p7843
tp7844
aa(lp7845
S'voldemort.client.AdminServiceBasicTest.testFetchAndUpdateStoresMetadata[3]'
p7846
a(S'pass'
p7847
S'pass'
p7848
S'pass'
p7849
S'pass'
p7850
tp7851
aa(lp7852
S'voldemort.client.AdminServiceBasicTest.testAddStore[3]'
p7853
a(S'pass'
p7854
S'pass'
p7855
S'pass'
p7856
S'pass'
p7857
tp7858
aa(lp7859
S'voldemort.client.AdminServiceBasicTest.testUpdate[3]'
p7860
a(S'pass'
p7861
S'pass'
p7862
S'pass'
p7863
S'pass'
p7864
tp7865
aa(lp7866
S'voldemort.client.AdminServiceBasicTest.testUpdateTimeBased[3]'
p7867
a(S'pass'
p7868
S'pass'
p7869
S'pass'
p7870
S'pass'
p7871
tp7872
aa(lp7873
S'voldemort.client.AdminServiceBasicTest.testUpdateSlops[3]'
p7874
a(S'pass'
p7875
S'pass'
p7876
S'pass'
p7877
S'pass'
p7878
tp7879
aa(lp7880
S'voldemort.client.AdminServiceBasicTest.testRecoverData[3]'
p7881
a(S'pass'
p7882
S'pass'
p7883
S'pass'
p7884
S'pass'
p7885
tp7886
aa(lp7887
S'voldemort.client.AdminServiceBasicTest.testFetchAndUpdateRW[3]'
p7888
a(S'pass'
p7889
S'pass'
p7890
S'pass'
p7891
S'pass'
p7892
tp7893
aa(lp7894
S'voldemort.client.AdminServiceBasicTest.testQuotaOpsForNode[3]'
p7895
a(S'pass'
p7896
S'pass'
p7897
S'pass'
p7898
S'pass'
p7899
tp7900
aa(lp7901
S'voldemort.client.AdminServiceBasicTest.testRebalanceQuota[3]'
p7902
a(S'pass'
p7903
S'pass'
p7904
S'pass'
p7905
S'pass'
p7906
tp7907
aa(lp7908
S'voldemort.store.routed.HintedHandoffFailureTest.testSlopOnDelayedFailingAsyncPut_2_1_1'
p7909
a(S'pass'
p7910
S'pass'
p7911
S'pass'
p7912
S'pass'
p7913
tp7914
aa(lp7915
S'voldemort.store.routed.HintedHandoffFailureTest.testSlopOnDelayedFailingAsyncPut_3_2_2'
p7916
a(S'pass'
p7917
S'pass'
p7918
S'pass'
p7919
S'pass'
p7920
tp7921
aa(lp7922
S'voldemort.store.routed.HintedHandoffFailureTest.testSlopViaSerialHint_2_1_1'
p7923
a(S'pass'
p7924
S'pass'
p7925
S'pass'
p7926
S'pass'
p7927
tp7928
aa(lp7929
S'voldemort.store.routed.HintedHandoffFailureTest.testSlopViaSerialHint_3_2_2'
p7930
a(S'pass'
p7931
S'pass'
p7932
S'pass'
p7933
S'pass'
p7934
tp7935
aa(lp7936
S'voldemort.store.routed.HintedHandoffFailureTest.testNoSlopsOnAllReplicaFailures'
p7937
a(S'pass'
p7938
S'pass'
p7939
S'pass'
p7940
S'pass'
p7941
tp7942
aa(lp7943
S'voldemort.utils.pool.KeyedResourcePoolRaceTest.testAttemptGrow'
p7944
a(S'pass'
p7945
S'pass'
p7946
S'pass'
p7947
S'pass'
p7948
tp7949
aa(lp7950
S'voldemort.store.memory.SlowStorageEngineTest.testEachOpTypeIndividually'
p7951
a(S'pass'
p7952
S'pass'
p7953
S'pass'
p7954
S'pass'
p7955
tp7956
aa(lp7957
S'voldemort.store.memory.SlowStorageEngineTest.testEachOpTypeRepeated'
p7958
a(S'pass'
p7959
S'pass'
p7960
S'pass'
p7961
S'pass'
p7962
tp7963
aa(lp7964
S'voldemort.store.memory.SlowStorageEngineTest.testIterationWithSerialization'
p7965
a(S'pass'
p7966
S'pass'
p7967
S'pass'
p7968
S'pass'
p7969
tp7970
aa(lp7971
S'voldemort.store.memory.SlowStorageEngineTest.testGetNoEntries'
p7972
a(S'pass'
p7973
S'pass'
p7974
S'pass'
p7975
S'pass'
p7976
tp7977
aa(lp7978
S'voldemort.store.memory.SlowStorageEngineTest.testPruneOnWrite'
p7979
a(S'pass'
p7980
S'pass'
p7981
S'pass'
p7982
S'pass'
p7983
tp7984
aa(lp7985
S'voldemort.store.memory.SlowStorageEngineTest.testTruncate'
p7986
a(S'pass'
p7987
S'pass'
p7988
S'pass'
p7989
S'pass'
p7990
tp7991
aa(lp7992
S'voldemort.store.memory.SlowStorageEngineTest.testMultiVersionPuts'
p7993
a(S'pass'
p7994
S'pass'
p7995
S'pass'
p7996
S'pass'
p7997
tp7998
aa(lp7999
S'voldemort.store.memory.SlowStorageEngineTest.testEntryIteration'
p8000
a(S'pass'
p8001
S'pass'
p8002
S'pass'
p8003
S'pass'
p8004
tp8005
aa(lp8006
S'voldemort.store.memory.SlowStorageEngineTest.testGetNoKeys'
p8007
a(S'pass'
p8008
S'pass'
p8009
S'pass'
p8010
S'pass'
p8011
tp8012
aa(lp8013
S'voldemort.store.memory.SlowStorageEngineTest.testKeyIterationWithSerialization'
p8014
a(S'pass'
p8015
S'pass'
p8016
S'pass'
p8017
S'pass'
p8018
tp8019
aa(lp8020
S'voldemort.store.memory.SlowStorageEngineTest.testEmptyByteArray'
p8021
a(S'pass'
p8022
S'pass'
p8023
S'pass'
p8024
S'pass'
p8025
tp8026
aa(lp8027
S'voldemort.store.memory.SlowStorageEngineTest.testNullKeys'
p8028
a(S'pass'
p8029
S'pass'
p8030
S'pass'
p8031
S'pass'
p8032
tp8033
aa(lp8034
S'voldemort.store.memory.SlowStorageEngineTest.testPutNullValue'
p8035
a(S'pass'
p8036
S'pass'
p8037
S'pass'
p8038
S'pass'
p8039
tp8040
aa(lp8041
S'voldemort.store.memory.SlowStorageEngineTest.testGetAndDeleteNonExistentKey'
p8042
a(S'pass'
p8043
S'pass'
p8044
S'pass'
p8045
S'pass'
p8046
tp8047
aa(lp8048
S'voldemort.store.memory.SlowStorageEngineTest.testFetchedEqualsPut'
p8049
a(S'pass'
p8050
S'pass'
p8051
S'pass'
p8052
S'pass'
p8053
tp8054
aa(lp8055
S'voldemort.store.memory.SlowStorageEngineTest.testVersionedPut'
p8056
a(S'pass'
p8057
S'pass'
p8058
S'pass'
p8059
S'pass'
p8060
tp8061
aa(lp8062
S'voldemort.store.memory.SlowStorageEngineTest.testDelete'
p8063
a(S'pass'
p8064
S'pass'
p8065
S'pass'
p8066
S'pass'
p8067
tp8068
aa(lp8069
S'voldemort.store.memory.SlowStorageEngineTest.testGetVersions'
p8070
a(S'pass'
p8071
S'pass'
p8072
S'pass'
p8073
S'pass'
p8074
tp8075
aa(lp8076
S'voldemort.store.memory.SlowStorageEngineTest.testGetAll'
p8077
a(S'pass'
p8078
S'pass'
p8079
S'pass'
p8080
S'pass'
p8081
tp8082
aa(lp8083
S'voldemort.store.memory.SlowStorageEngineTest.testGetAllWithAbsentKeys'
p8084
a(S'pass'
p8085
S'pass'
p8086
S'pass'
p8087
S'pass'
p8088
tp8089
aa(lp8090
S'voldemort.store.memory.SlowStorageEngineTest.testCloseIsIdempotent'
p8091
a(S'pass'
p8092
S'pass'
p8093
S'pass'
p8094
S'pass'
p8095
tp8096
aa(lp8097
S'voldemort.routing.ConsistentRoutingStrategyTest.test3xReplcation'
p8098
a(S'pass'
p8099
S'pass'
p8100
S'pass'
p8101
S'pass'
p8102
tp8103
aa(lp8104
S'voldemort.routing.ConsistentRoutingStrategyTest.test1xReplication'
p8105
a(S'pass'
p8106
S'pass'
p8107
S'pass'
p8108
S'pass'
p8109
tp8110
aa(lp8111
S'voldemort.routing.ConsistentRoutingStrategyTest.test3xPartitions'
p8112
a(S'pass'
p8113
S'pass'
p8114
S'pass'
p8115
S'pass'
p8116
tp8117
aa(lp8118
S'voldemort.routing.ConsistentRoutingStrategyTest.testGetNodes'
p8119
a(S'pass'
p8120
S'pass'
p8121
S'pass'
p8122
S'pass'
p8123
tp8124
aa(lp8125
S'voldemort.routing.ConsistentRoutingStrategyTest.testTagAssignment'
p8126
a(S'pass'
p8127
S'pass'
p8128
S'pass'
p8129
S'pass'
p8130
tp8131
aa(lp8132
S'voldemort.routing.ConsistentRoutingStrategyTest.testLoadBalancing'
p8133
a(S'pass'
p8134
S'pass'
p8135
S'pass'
p8136
S'pass'
p8137
tp8138
aa(lp8139
S'voldemort.server.protocol.admin.AsyncOperationTest.testAsyncOperationService'
p8140
a(S'pass'
p8141
S'pass'
p8142
S'pass'
p8143
S'pass'
p8144
tp8145
aa(lp8146
S'voldemort.server.protocol.admin.AsyncOperationTest.testAsyncOperationCache'
p8147
a(S'pass'
p8148
S'pass'
p8149
S'pass'
p8150
S'pass'
p8151
tp8152
aa(lp8153
S'voldemort.xml.ClusterMapperTest.testClusterMapperValues'
p8154
a(S'pass'
p8155
S'pass'
p8156
S'pass'
p8157
S'pass'
p8158
tp8159
aa(lp8160
S'voldemort.xml.ClusterMapperTest.testZoneProximityList'
p8161
a(S'pass'
p8162
S'pass'
p8163
S'pass'
p8164
S'pass'
p8165
tp8166
aa(lp8167
S'voldemort.xml.ClusterMapperTest.testOtherClusters'
p8168
a(S'pass'
p8169
S'pass'
p8170
S'pass'
p8171
S'pass'
p8172
tp8173
aa(lp8174
S'voldemort.xml.ClusterMapperTest.testClusterEquals'
p8175
a(S'pass'
p8176
S'pass'
p8177
S'pass'
p8178
S'pass'
p8179
tp8180
aa(lp8181
S'voldemort.versioning.ClockEntryTest.testEquality'
p8182
a(S'pass'
p8183
S'pass'
p8184
S'pass'
p8185
S'pass'
p8186
tp8187
aa(lp8188
S'voldemort.versioning.ClockEntryTest.testIncrement'
p8189
a(S'pass'
p8190
S'pass'
p8191
S'pass'
p8192
S'pass'
p8193
tp8194
aa(lp8195
S'voldemort.client.rebalance.ZonedRebalanceBatchPlanTest.testNoop'
p8196
a(S'pass'
p8197
S'pass'
p8198
S'pass'
p8199
S'pass'
p8200
tp8201
aa(lp8202
S'voldemort.client.rebalance.ZonedRebalanceBatchPlanTest.testShuffle'
p8203
a(S'pass'
p8204
S'pass'
p8205
S'pass'
p8206
S'pass'
p8207
tp8208
aa(lp8209
S'voldemort.client.rebalance.ZonedRebalanceBatchPlanTest.testClusterExpansion'
p8210
a(S'pass'
p8211
S'pass'
p8212
S'pass'
p8213
S'pass'
p8214
tp8215
aa(lp8216
S'voldemort.client.rebalance.ZonedRebalanceBatchPlanTest.testZoneExpansion'
p8217
a(S'pass'
p8218
S'pass'
p8219
S'pass'
p8220
S'pass'
p8221
tp8222
aa(lp8223
S'voldemort.client.rebalance.ZonedRebalanceBatchPlanTest.testNoopWithNonContiguousZoneIdsAndNodeIds'
p8224
a(S'pass'
p8225
S'pass'
p8226
S'pass'
p8227
S'pass'
p8228
tp8229
aa(lp8230
S'voldemort.client.rebalance.ZonedRebalanceBatchPlanTest.testShuffleWithNonContiguousZoneIdsAndNodeIds'
p8231
a(S'pass'
p8232
S'pass'
p8233
S'pass'
p8234
S'pass'
p8235
tp8236
aa(lp8237
S'voldemort.client.rebalance.ZonedRebalanceBatchPlanTest.testClusterExpansionWithNonContiguousZoneIdsAndNodeIds'
p8238
a(S'pass'
p8239
S'pass'
p8240
S'pass'
p8241
S'pass'
p8242
tp8243
aa(lp8244
S'voldemort.protocol.pb.ProtocolBuffersRequestFormatTest.testReadGetResponse'
p8245
a(S'pass'
p8246
S'pass'
p8247
S'pass'
p8248
S'pass'
p8249
tp8250
aa(lp8251
S'voldemort.protocol.pb.ProtocolBuffersRequestFormatTest.testNullKeys'
p8252
a(S'pass'
p8253
S'pass'
p8254
S'pass'
p8255
S'pass'
p8256
tp8257
aa(lp8258
S'voldemort.protocol.pb.ProtocolBuffersRequestFormatTest.testGetRequests'
p8259
a(S'pass'
p8260
S'pass'
p8261
S'pass'
p8262
S'pass'
p8263
tp8264
aa(lp8265
S'voldemort.protocol.pb.ProtocolBuffersRequestFormatTest.testGetVersionRequest'
p8266
a(S'pass'
p8267
S'pass'
p8268
S'pass'
p8269
S'pass'
p8270
tp8271
aa(lp8272
S'voldemort.protocol.pb.ProtocolBuffersRequestFormatTest.testGetAllRequests'
p8273
a(S'pass'
p8274
S'pass'
p8275
S'pass'
p8276
S'pass'
p8277
tp8278
aa(lp8279
S'voldemort.protocol.pb.ProtocolBuffersRequestFormatTest.testPutRequests'
p8280
a(S'pass'
p8281
S'pass'
p8282
S'pass'
p8283
S'pass'
p8284
tp8285
aa(lp8286
S'voldemort.protocol.pb.ProtocolBuffersRequestFormatTest.testDeleteRequests'
p8287
a(S'pass'
p8288
S'pass'
p8289
S'pass'
p8290
S'pass'
p8291
tp8292
aa(lp8293
S'voldemort.client.AdminServiceFilterTest.testFetchAsStreamWithFilter[0]'
p8294
a(S'pass'
p8295
S'pass'
p8296
S'pass'
p8297
S'pass'
p8298
tp8299
aa(lp8300
S'voldemort.client.AdminServiceFilterTest.testDeleteStreamWithFilter[0]'
p8301
a(S'pass'
p8302
S'pass'
p8303
S'pass'
p8304
S'pass'
p8305
tp8306
aa(lp8307
S'voldemort.client.AdminServiceFilterTest.testUpdateAsStreamWithFilter[0]'
p8308
a(S'pass'
p8309
S'pass'
p8310
S'pass'
p8311
S'pass'
p8312
tp8313
aa(lp8314
S'voldemort.client.AdminServiceFilterTest.testFetchAsStreamWithFilter[1]'
p8315
a(S'pass'
p8316
S'pass'
p8317
S'pass'
p8318
S'pass'
p8319
tp8320
aa(lp8321
S'voldemort.client.AdminServiceFilterTest.testDeleteStreamWithFilter[1]'
p8322
a(S'pass'
p8323
S'pass'
p8324
S'pass'
p8325
S'pass'
p8326
tp8327
aa(lp8328
S'voldemort.client.AdminServiceFilterTest.testUpdateAsStreamWithFilter[1]'
p8329
a(S'pass'
p8330
S'pass'
p8331
S'pass'
p8332
S'pass'
p8333
tp8334
aa(lp8335
S'voldemort.tools.ZoneShrinkageCLITest.testZoneShrinkageCLI'
p8336
a(S'pass'
p8337
S'pass'
p8338
S'pass'
p8339
S'pass'
p8340
tp8341
aa(lp8342
S'voldemort.tools.ZoneShrinkageCLITest.testZoneShrinkageCLIWithNonContigiousZone'
p8343
a(S'pass'
p8344
S'pass'
p8345
S'pass'
p8346
S'pass'
p8347
tp8348
aa(lp8349
S'voldemort.serialization.VersionedSerializerTest.testSerialization'
p8350
a(S'pass'
p8351
S'pass'
p8352
S'pass'
p8353
S'pass'
p8354
tp8355
aa(lp8356
S'voldemort.client.rebalance.ZoneShrinkageEndToEndTest.endToEndTestUpdateTogether'
p8357
a(S'pass'
p8358
S'fail'
p8359
S'pass'
p8360
S'pass'
p8361
tp8362
aa(lp8363
S'voldemort.client.rebalance.ZoneShrinkageEndToEndTest.testAllServersSendingOutSlopsCorrectly'
p8364
a(S'pass'
p8365
S'pass'
p8366
S'pass'
p8367
S'pass'
p8368
tp8369
aa(lp8370
S'voldemort.store.readonly.ReadOnlyStorageMetadataTest.testToJson'
p8371
a(S'pass'
p8372
S'pass'
p8373
S'pass'
p8374
S'pass'
p8375
tp8376
aa(lp8377
S'voldemort.serialization.avro.AvroSpecificSerializerTest.testFailWithInvalidSchemaInfo'
p8378
a(S'pass'
p8379
S'pass'
p8380
S'pass'
p8381
S'pass'
p8382
tp8383
aa(lp8384
S'voldemort.serialization.avro.AvroSpecificSerializerTest.testRoundtripAvroWithHandShakeRequest'
p8385
a(S'pass'
p8386
S'pass'
p8387
S'pass'
p8388
S'pass'
p8389
tp8390
aa(lp8391
S'voldemort.store.views.ViewTransformsTest.testGet'
p8392
a(S'pass'
p8393
S'pass'
p8394
S'pass'
p8395
S'pass'
p8396
tp8397
aa(lp8398
S'voldemort.store.views.ViewTransformsTest.testGetWithTransforms'
p8399
a(S'pass'
p8400
S'pass'
p8401
S'pass'
p8402
S'pass'
p8403
tp8404
aa(lp8405
S'voldemort.store.views.ViewTransformsTest.testPut'
p8406
a(S'pass'
p8407
S'pass'
p8408
S'pass'
p8409
S'pass'
p8410
tp8411
aa(lp8412
S'voldemort.store.views.ViewTransformsTest.testPutWithTransforms'
p8413
a(S'pass'
p8414
S'pass'
p8415
S'pass'
p8416
S'pass'
p8417
tp8418
aa(lp8419
S'voldemort.store.views.ViewTransformsTest.testPutNegative'
p8420
a(S'pass'
p8421
S'pass'
p8422
S'pass'
p8423
S'pass'
p8424
tp8425
aa(lp8426
S'voldemort.client.HttpStoreClientFactoryTest.testHappyCase'
p8427
a(S'pass'
p8428
S'pass'
p8429
S'pass'
p8430
S'pass'
p8431
tp8432
aa(lp8433
S'voldemort.client.HttpStoreClientFactoryTest.testCustomSerializerFactory'
p8434
a(S'pass'
p8435
S'pass'
p8436
S'pass'
p8437
S'pass'
p8438
tp8439
aa(lp8440
S'voldemort.client.HttpStoreClientFactoryTest.testBootstrapServerDown'
p8441
a(S'pass'
p8442
S'pass'
p8443
S'pass'
p8444
S'pass'
p8445
tp8446
aa(lp8447
S'voldemort.client.HttpStoreClientFactoryTest.testBootstrapFailoverSucceeds'
p8448
a(S'pass'
p8449
S'pass'
p8450
S'pass'
p8451
S'pass'
p8452
tp8453
aa(lp8454
S'voldemort.client.HttpStoreClientFactoryTest.testUnknownStoreName'
p8455
a(S'pass'
p8456
S'pass'
p8457
S'pass'
p8458
S'pass'
p8459
tp8460
aa(lp8461
S'voldemort.store.routed.ZoneCountWriteTest.testFastPath[0]'
p8462
a(S'pass'
p8463
S'pass'
p8464
S'pass'
p8465
S'pass'
p8466
tp8467
aa(lp8468
S'voldemort.store.routed.ZoneCountWriteTest.testRemoteZoneNodeFail[0]'
p8469
a(S'pass'
p8470
S'pass'
p8471
S'pass'
p8472
S'pass'
p8473
tp8474
aa(lp8475
S'voldemort.store.routed.ZoneCountWriteTest.testRemoteZoneNodeFailInsufficientZone[0]'
p8476
a(S'pass'
p8477
S'pass'
p8478
S'pass'
p8479
S'pass'
p8480
tp8481
aa(lp8482
S'voldemort.store.routed.ZoneCountWriteTest.testFastPath[1]'
p8483
a(S'pass'
p8484
S'pass'
p8485
S'pass'
p8486
S'pass'
p8487
tp8488
aa(lp8489
S'voldemort.store.routed.ZoneCountWriteTest.testRemoteZoneNodeFail[1]'
p8490
a(S'pass'
p8491
S'pass'
p8492
S'pass'
p8493
S'pass'
p8494
tp8495
aa(lp8496
S'voldemort.store.routed.ZoneCountWriteTest.testRemoteZoneNodeFailInsufficientZone[1]'
p8497
a(S'pass'
p8498
S'pass'
p8499
S'pass'
p8500
S'pass'
p8501
tp8502
aa(lp8503
S'voldemort.store.system.AsyncMetadataVersionManagerTest.testBasicAsyncBehaviour[0]'
p8504
a(S'pass'
p8505
S'pass'
p8506
S'pass'
p8507
S'pass'
p8508
tp8509
aa(lp8510
S'voldemort.store.system.AsyncMetadataVersionManagerTest.testStoreDefinitionChangeTracker[0]'
p8511
a(S'pass'
p8512
S'pass'
p8513
S'pass'
p8514
S'pass'
p8515
tp8516
aa(lp8517
S'voldemort.store.system.AsyncMetadataVersionManagerTest.testMultipleStoreDefinitionsChangeTracker[0]'
p8518
a(S'pass'
p8519
S'pass'
p8520
S'pass'
p8521
S'pass'
p8522
tp8523
aa(lp8524
S'voldemort.store.system.AsyncMetadataVersionManagerTest.testBasicAsyncBehaviour[1]'
p8525
a(S'pass'
p8526
S'pass'
p8527
S'pass'
p8528
S'pass'
p8529
tp8530
aa(lp8531
S'voldemort.store.system.AsyncMetadataVersionManagerTest.testStoreDefinitionChangeTracker[1]'
p8532
a(S'pass'
p8533
S'pass'
p8534
S'pass'
p8535
S'pass'
p8536
tp8537
aa(lp8538
S'voldemort.store.system.AsyncMetadataVersionManagerTest.testMultipleStoreDefinitionsChangeTracker[1]'
p8539
a(S'pass'
p8540
S'pass'
p8541
S'pass'
p8542
S'pass'
p8543
tp8544
aa(lp8545
S'voldemort.utils.ServerTestUtilsTest.testStartVoldemortCluster'
p8546
a(S'pass'
p8547
S'pass'
p8548
S'pass'
p8549
S'pass'
p8550
tp8551
aa(lp8552
S'voldemort.tools.admin.SetMetadataTest.testSetMetadataStoreXmlVerifyVersionUpdate'
p8553
a(S'pass'
p8554
S'pass'
p8555
S'pass'
p8556
S'pass'
p8557
tp8558
aa(lp8559
S'voldemort.scheduled.StreamingSlopPusherTest.testFailedServer'
p8560
a(S'pass'
p8561
S'pass'
p8562
S'pass'
p8563
S'pass'
p8564
tp8565
aa(lp8566
S'voldemort.scheduled.StreamingSlopPusherTest.testOutOfOrder'
p8567
a(S'skip'
p8568
S'skip'
p8569
S'skip'
p8570
S'skip'
p8571
tp8572
aa(lp8573
S'voldemort.scheduled.StreamingSlopPusherTest.testNormalPush'
p8574
a(S'pass'
p8575
S'pass'
p8576
S'pass'
p8577
S'pass'
p8578
tp8579
aa(lp8580
S'voldemort.scheduled.StreamingSlopPusherTest.testPushForHostSwap'
p8581
a(S'pass'
p8582
S'pass'
p8583
S'pass'
p8584
S'pass'
p8585
tp8586
aa(lp8587
S'voldemort.scheduled.StreamingSlopPusherTest.testNormalPushBothWays'
p8588
a(S'pass'
p8589
S'pass'
p8590
S'pass'
p8591
S'pass'
p8592
tp8593
aa(lp8594
S'voldemort.scheduled.StreamingSlopPusherTest.testServerReplacementWithoutBounce'
p8595
a(S'pass'
p8596
S'pass'
p8597
S'pass'
p8598
S'pass'
p8599
tp8600
aa(lp8601
S'voldemort.server.storage.VersionedPutPruningTest.testOnlineBehavior'
p8602
a(S'pass'
p8603
S'pass'
p8604
S'pass'
p8605
S'pass'
p8606
tp8607
aa(lp8608
S'voldemort.server.storage.VersionedPutPruningTest.testOnlineBehaviorWithConflicts'
p8609
a(S'pass'
p8610
S'pass'
p8611
S'pass'
p8612
S'pass'
p8613
tp8614
aa(lp8615
S'voldemort.server.storage.VersionedPutPruningTest.testOutOfSyncPruning'
p8616
a(S'pass'
p8617
S'pass'
p8618
S'pass'
p8619
S'pass'
p8620
tp8621
aa(lp8622
S'voldemort.server.storage.VersionedPutPruningTest.testPruningLogic'
p8623
a(S'pass'
p8624
S'pass'
p8625
S'pass'
p8626
S'pass'
p8627
tp8628
aa(lp8629
S'voldemort.client.AtomicSetMetadataPairTest.testClusterAndStoresAreSetAtomically[0]'
p8630
a(S'pass'
p8631
S'pass'
p8632
S'pass'
p8633
S'pass'
p8634
tp8635
aa(lp8636
S'voldemort.client.AtomicSetMetadataPairTest.testClusterAndStoresAreSetAtomically[1]'
p8637
a(S'pass'
p8638
S'pass'
p8639
S'pass'
p8640
S'pass'
p8641
tp8642
aa(lp8643
S'voldemort.client.AtomicSetMetadataPairTest.testClusterAndStoresAreSetAtomically[2]'
p8644
a(S'pass'
p8645
S'pass'
p8646
S'pass'
p8647
S'pass'
p8648
tp8649
aa(lp8650
S'voldemort.serialization.SlopSerializerTest.testSerialization'
p8651
a(S'pass'
p8652
S'pass'
p8653
S'pass'
p8654
S'pass'
p8655
tp8656
aatp8657
Rp8658
aatp8659
Rp8660
.